	.file	"create_f.cpp"
	.text
.Ltext0:
	.p2align 4
	.globl	_Z7encryptPhjh
	.type	_Z7encryptPhjh, @function
_Z7encryptPhjh:
.LVL0:
.LFB57:
	.file 1 "create_f.cpp"
	.loc 1 5 1 view -0
	.cfi_startproc
	.loc 1 5 1 is_stmt 0 view .LVU1
	endbr64
	.loc 1 6 5 is_stmt 1 view .LVU2
.LVL1:
.LBB64:
	.loc 1 6 28 view .LVU3
.LBE64:
	.loc 1 5 1 is_stmt 0 view .LVU4
	movl	%edx, %eax
.LBB65:
	.loc 1 6 28 view .LVU5
	testl	%esi, %esi
	je	.L2
	leal	-1(%rsi), %edx
.LVL2:
	.loc 1 6 28 view .LVU6
	cmpl	$14, %edx
	jbe	.L6
	movd	%eax, %xmm1
	movl	%esi, %edx
	movq	%rdi, %rcx
	punpcklbw	%xmm1, %xmm1
	shrl	$4, %edx
	punpcklwd	%xmm1, %xmm1
	salq	$4, %rdx
	pshufd	$0, %xmm1, %xmm1
	addq	%rdi, %rdx
.LVL3:
	.p2align 4,,10
	.p2align 3
.L4:
	.loc 1 8 9 is_stmt 1 discriminator 2 view .LVU7
	.loc 1 8 14 is_stmt 0 discriminator 2 view .LVU8
	movdqu	(%rcx), %xmm0
	addq	$16, %rcx
	pxor	%xmm1, %xmm0
	movups	%xmm0, -16(%rcx)
	.loc 1 6 5 is_stmt 1 discriminator 2 view .LVU9
	.loc 1 6 28 discriminator 2 view .LVU10
	cmpq	%rdx, %rcx
	jne	.L4
	movl	%esi, %edx
	andl	$-16, %edx
	testb	$15, %sil
	je	.L2
.L3:
.LVL4:
	.loc 1 8 9 view .LVU11
	.loc 1 8 14 is_stmt 0 view .LVU12
	movl	%edx, %ecx
	xorb	%al, (%rdi,%rcx)
	.loc 1 6 5 is_stmt 1 view .LVU13
	leal	1(%rdx), %ecx
.LVL5:
	.loc 1 6 28 view .LVU14
	cmpl	%ecx, %esi
	jbe	.L2
	.loc 1 8 9 view .LVU15
	.loc 1 8 14 is_stmt 0 view .LVU16
	xorb	%al, (%rdi,%rcx)
	.loc 1 6 5 is_stmt 1 view .LVU17
	leal	2(%rdx), %ecx
.LVL6:
	.loc 1 6 28 view .LVU18
	cmpl	%ecx, %esi
	jbe	.L2
	.loc 1 8 9 view .LVU19
	.loc 1 8 14 is_stmt 0 view .LVU20
	xorb	%al, (%rdi,%rcx)
	.loc 1 6 5 is_stmt 1 view .LVU21
	leal	3(%rdx), %ecx
.LVL7:
	.loc 1 6 28 view .LVU22
	cmpl	%ecx, %esi
	jbe	.L2
	.loc 1 8 9 view .LVU23
	.loc 1 8 14 is_stmt 0 view .LVU24
	xorb	%al, (%rdi,%rcx)
	.loc 1 6 5 is_stmt 1 view .LVU25
	leal	4(%rdx), %ecx
.LVL8:
	.loc 1 6 28 view .LVU26
	cmpl	%ecx, %esi
	jbe	.L2
	.loc 1 8 9 view .LVU27
	.loc 1 8 14 is_stmt 0 view .LVU28
	xorb	%al, (%rdi,%rcx)
	.loc 1 6 5 is_stmt 1 view .LVU29
	leal	5(%rdx), %ecx
.LVL9:
	.loc 1 6 28 view .LVU30
	cmpl	%ecx, %esi
	jbe	.L2
	.loc 1 8 9 view .LVU31
	.loc 1 8 14 is_stmt 0 view .LVU32
	xorb	%al, (%rdi,%rcx)
	.loc 1 6 5 is_stmt 1 view .LVU33
	leal	6(%rdx), %ecx
.LVL10:
	.loc 1 6 28 view .LVU34
	cmpl	%ecx, %esi
	jbe	.L2
	.loc 1 8 9 view .LVU35
	.loc 1 8 14 is_stmt 0 view .LVU36
	xorb	%al, (%rdi,%rcx)
	.loc 1 6 5 is_stmt 1 view .LVU37
	leal	7(%rdx), %ecx
.LVL11:
	.loc 1 6 28 view .LVU38
	cmpl	%ecx, %esi
	jbe	.L2
	.loc 1 8 9 view .LVU39
	.loc 1 8 14 is_stmt 0 view .LVU40
	xorb	%al, (%rdi,%rcx)
	.loc 1 6 5 is_stmt 1 view .LVU41
	leal	8(%rdx), %ecx
.LVL12:
	.loc 1 6 28 view .LVU42
	cmpl	%ecx, %esi
	jbe	.L2
	.loc 1 8 9 view .LVU43
	.loc 1 8 14 is_stmt 0 view .LVU44
	xorb	%al, (%rdi,%rcx)
	.loc 1 6 5 is_stmt 1 view .LVU45
	leal	9(%rdx), %ecx
.LVL13:
	.loc 1 6 28 view .LVU46
	cmpl	%ecx, %esi
	jbe	.L2
	.loc 1 8 9 view .LVU47
	.loc 1 8 14 is_stmt 0 view .LVU48
	xorb	%al, (%rdi,%rcx)
	.loc 1 6 5 is_stmt 1 view .LVU49
	leal	10(%rdx), %ecx
.LVL14:
	.loc 1 6 28 view .LVU50
	cmpl	%ecx, %esi
	jbe	.L2
	.loc 1 8 9 view .LVU51
	.loc 1 8 14 is_stmt 0 view .LVU52
	xorb	%al, (%rdi,%rcx)
	.loc 1 6 5 is_stmt 1 view .LVU53
	leal	11(%rdx), %ecx
.LVL15:
	.loc 1 6 28 view .LVU54
	cmpl	%ecx, %esi
	jbe	.L2
	.loc 1 8 9 view .LVU55
	.loc 1 8 14 is_stmt 0 view .LVU56
	xorb	%al, (%rdi,%rcx)
	.loc 1 6 5 is_stmt 1 view .LVU57
	leal	12(%rdx), %ecx
.LVL16:
	.loc 1 6 28 view .LVU58
	cmpl	%ecx, %esi
	jbe	.L2
	.loc 1 8 9 view .LVU59
	.loc 1 8 14 is_stmt 0 view .LVU60
	xorb	%al, (%rdi,%rcx)
	.loc 1 6 5 is_stmt 1 view .LVU61
	leal	13(%rdx), %ecx
.LVL17:
	.loc 1 6 28 view .LVU62
	cmpl	%ecx, %esi
	jbe	.L2
	.loc 1 8 9 view .LVU63
	.loc 1 6 5 is_stmt 0 view .LVU64
	addl	$14, %edx
	.loc 1 8 14 view .LVU65
	xorb	%al, (%rdi,%rcx)
	.loc 1 6 5 is_stmt 1 view .LVU66
.LVL18:
	.loc 1 6 28 view .LVU67
	cmpl	%edx, %esi
	jbe	.L2
	.loc 1 8 9 view .LVU68
	.loc 1 8 14 is_stmt 0 view .LVU69
	xorb	%al, (%rdi,%rdx)
	.loc 1 6 5 is_stmt 1 view .LVU70
	.loc 1 6 28 view .LVU71
.L2:
	.loc 1 6 28 is_stmt 0 view .LVU72
.LBE65:
	.loc 1 10 5 is_stmt 1 view .LVU73
	.loc 1 10 21 is_stmt 0 view .LVU74
	xorl	$10, %eax
	.loc 1 11 1 view .LVU75
	ret
.LVL19:
.L6:
.LBB66:
	.loc 1 6 22 view .LVU76
	xorl	%edx, %edx
	jmp	.L3
.LBE66:
	.cfi_endproc
.LFE57:
	.size	_Z7encryptPhjh, .-_Z7encryptPhjh
	.p2align 4
	.globl	_Z7decryptPhjh
	.type	_Z7decryptPhjh, @function
_Z7decryptPhjh:
.LVL20:
.LFB58:
	.loc 1 14 1 is_stmt 1 view -0
	.cfi_startproc
	.loc 1 14 1 is_stmt 0 view .LVU78
	endbr64
	.loc 1 15 5 is_stmt 1 view .LVU79
	.loc 1 15 9 is_stmt 0 view .LVU80
	xorl	$10, %edx
.LVL21:
	.loc 1 16 5 is_stmt 1 view .LVU81
.LBB67:
	.loc 1 16 28 view .LVU82
	testl	%esi, %esi
	je	.L12
	leal	-1(%rsi), %eax
	cmpl	$14, %eax
	jbe	.L17
	movd	%edx, %xmm1
	movl	%esi, %ecx
	movq	%rdi, %rax
	punpcklbw	%xmm1, %xmm1
	shrl	$4, %ecx
	punpcklwd	%xmm1, %xmm1
	salq	$4, %rcx
	pshufd	$0, %xmm1, %xmm1
	addq	%rdi, %rcx
.LVL22:
	.p2align 4,,10
	.p2align 3
.L15:
	.loc 1 18 9 discriminator 2 view .LVU83
	.loc 1 18 14 is_stmt 0 discriminator 2 view .LVU84
	movdqu	(%rax), %xmm0
	addq	$16, %rax
	pxor	%xmm1, %xmm0
	movups	%xmm0, -16(%rax)
	.loc 1 16 5 is_stmt 1 discriminator 2 view .LVU85
	.loc 1 16 28 discriminator 2 view .LVU86
	cmpq	%rcx, %rax
	jne	.L15
	movl	%esi, %eax
	andl	$-16, %eax
	testb	$15, %sil
	je	.L22
.L14:
.LVL23:
	.loc 1 18 9 view .LVU87
	.loc 1 18 14 is_stmt 0 view .LVU88
	movl	%eax, %ecx
	xorb	%dl, (%rdi,%rcx)
	.loc 1 16 5 is_stmt 1 view .LVU89
	leal	1(%rax), %ecx
.LVL24:
	.loc 1 16 28 view .LVU90
	cmpl	%ecx, %esi
	jbe	.L12
	.loc 1 18 9 view .LVU91
	.loc 1 18 14 is_stmt 0 view .LVU92
	xorb	%dl, (%rdi,%rcx)
	.loc 1 16 5 is_stmt 1 view .LVU93
	leal	2(%rax), %ecx
.LVL25:
	.loc 1 16 28 view .LVU94
	cmpl	%ecx, %esi
	jbe	.L12
	.loc 1 18 9 view .LVU95
	.loc 1 18 14 is_stmt 0 view .LVU96
	xorb	%dl, (%rdi,%rcx)
	.loc 1 16 5 is_stmt 1 view .LVU97
	leal	3(%rax), %ecx
.LVL26:
	.loc 1 16 28 view .LVU98
	cmpl	%ecx, %esi
	jbe	.L12
	.loc 1 18 9 view .LVU99
	.loc 1 18 14 is_stmt 0 view .LVU100
	xorb	%dl, (%rdi,%rcx)
	.loc 1 16 5 is_stmt 1 view .LVU101
	leal	4(%rax), %ecx
.LVL27:
	.loc 1 16 28 view .LVU102
	cmpl	%ecx, %esi
	jbe	.L12
	.loc 1 18 9 view .LVU103
	.loc 1 18 14 is_stmt 0 view .LVU104
	xorb	%dl, (%rdi,%rcx)
	.loc 1 16 5 is_stmt 1 view .LVU105
	leal	5(%rax), %ecx
.LVL28:
	.loc 1 16 28 view .LVU106
	cmpl	%ecx, %esi
	jbe	.L12
	.loc 1 18 9 view .LVU107
	.loc 1 18 14 is_stmt 0 view .LVU108
	xorb	%dl, (%rdi,%rcx)
	.loc 1 16 5 is_stmt 1 view .LVU109
	leal	6(%rax), %ecx
.LVL29:
	.loc 1 16 28 view .LVU110
	cmpl	%ecx, %esi
	jbe	.L12
	.loc 1 18 9 view .LVU111
	.loc 1 18 14 is_stmt 0 view .LVU112
	xorb	%dl, (%rdi,%rcx)
	.loc 1 16 5 is_stmt 1 view .LVU113
	leal	7(%rax), %ecx
.LVL30:
	.loc 1 16 28 view .LVU114
	cmpl	%ecx, %esi
	jbe	.L12
	.loc 1 18 9 view .LVU115
	.loc 1 18 14 is_stmt 0 view .LVU116
	xorb	%dl, (%rdi,%rcx)
	.loc 1 16 5 is_stmt 1 view .LVU117
	leal	8(%rax), %ecx
.LVL31:
	.loc 1 16 28 view .LVU118
	cmpl	%ecx, %esi
	jbe	.L12
	.loc 1 18 9 view .LVU119
	.loc 1 18 14 is_stmt 0 view .LVU120
	xorb	%dl, (%rdi,%rcx)
	.loc 1 16 5 is_stmt 1 view .LVU121
	leal	9(%rax), %ecx
.LVL32:
	.loc 1 16 28 view .LVU122
	cmpl	%ecx, %esi
	jbe	.L12
	.loc 1 18 9 view .LVU123
	.loc 1 18 14 is_stmt 0 view .LVU124
	xorb	%dl, (%rdi,%rcx)
	.loc 1 16 5 is_stmt 1 view .LVU125
	leal	10(%rax), %ecx
.LVL33:
	.loc 1 16 28 view .LVU126
	cmpl	%ecx, %esi
	jbe	.L12
	.loc 1 18 9 view .LVU127
	.loc 1 18 14 is_stmt 0 view .LVU128
	xorb	%dl, (%rdi,%rcx)
	.loc 1 16 5 is_stmt 1 view .LVU129
	leal	11(%rax), %ecx
.LVL34:
	.loc 1 16 28 view .LVU130
	cmpl	%ecx, %esi
	jbe	.L12
	.loc 1 18 9 view .LVU131
	.loc 1 18 14 is_stmt 0 view .LVU132
	xorb	%dl, (%rdi,%rcx)
	.loc 1 16 5 is_stmt 1 view .LVU133
	leal	12(%rax), %ecx
.LVL35:
	.loc 1 16 28 view .LVU134
	cmpl	%ecx, %esi
	jbe	.L12
	.loc 1 18 9 view .LVU135
	.loc 1 18 14 is_stmt 0 view .LVU136
	xorb	%dl, (%rdi,%rcx)
	.loc 1 16 5 is_stmt 1 view .LVU137
	leal	13(%rax), %ecx
.LVL36:
	.loc 1 16 28 view .LVU138
	cmpl	%ecx, %esi
	jbe	.L12
	.loc 1 18 9 view .LVU139
	.loc 1 16 5 is_stmt 0 view .LVU140
	addl	$14, %eax
	.loc 1 18 14 view .LVU141
	xorb	%dl, (%rdi,%rcx)
	.loc 1 16 5 is_stmt 1 view .LVU142
.LVL37:
	.loc 1 16 28 view .LVU143
	cmpl	%eax, %esi
	jbe	.L12
	.loc 1 18 9 view .LVU144
	.loc 1 18 14 is_stmt 0 view .LVU145
	xorb	%dl, (%rdi,%rax)
	.loc 1 16 5 is_stmt 1 view .LVU146
	.loc 1 16 28 view .LVU147
.L12:
	.loc 1 16 28 is_stmt 0 view .LVU148
.LBE67:
	.loc 1 20 1 view .LVU149
	ret
.LVL38:
.L17:
.LBB68:
	.loc 1 16 22 view .LVU150
	xorl	%eax, %eax
	jmp	.L14
.LVL39:
.L22:
	.loc 1 16 22 view .LVU151
	ret
.LBE68:
	.cfi_endproc
.LFE58:
	.size	_Z7decryptPhjh, .-_Z7decryptPhjh
	.section	.rodata.str1.1,"aMS",@progbits,1
.LC0:
	.string	"encode:"
.LC1:
	.string	"%02x"
.LC2:
	.string	"dekey=0x%02x\n"
.LC3:
	.string	"decode:"
.LC4:
	.string	"0x%02x,"
.LC5:
	.string	"0x%02x};\n"
.LC6:
	.string	"\350\247\243\347\240\201Hex\357\274\232"
	.section	.rodata.str1.8,"aMS",@progbits,1
	.align 8
.LC7:
	.string	"94d2bc30d22368885183fd7e2e926b5d#13489071#/PicACG_2.2.1.3.3.4.apk"
	.section	.rodata.str1.1
.LC8:
	.string	"\345\216\237\345\247\213\357\274\232%s\n"
.LC9:
	.string	"\350\247\243\347\240\201\357\274\232%s\n"
.LC10:
	.string	"%s"
	.section	.rodata.str1.8
	.align 8
.LC11:
	.string	"\tunsigned char dekey = 0x%02x;\n"
	.align 8
.LC12:
	.string	"\tfor(int i=0;i<sizeof(encode);i++)printf(\"%%c\",encode[i]);printf(\"\\n\");\n"
	.section	.rodata.str1.1
.LC13:
	.string	"\344\273\243\347\240\201\357\274\232"
.LC14:
	.string	"w"
.LC15:
	.string	"./123.c"
.LC16:
	.string	"fopen"
	.text
	.p2align 4
	.globl	_Z12creat_decodev
	.type	_Z12creat_decodev, @function
_Z12creat_decodev:
.LFB59:
	.loc 1 22 20 is_stmt 1 view -0
	.cfi_startproc
	endbr64
	pushq	%r15
	.cfi_def_cfa_offset 16
	.cfi_offset 15, -16
	pushq	%r14
	.cfi_def_cfa_offset 24
	.cfi_offset 14, -24
	pushq	%r13
	.cfi_def_cfa_offset 32
	.cfi_offset 13, -32
	pushq	%r12
	.cfi_def_cfa_offset 40
	.cfi_offset 12, -40
	pushq	%rbp
	.cfi_def_cfa_offset 48
	.cfi_offset 6, -48
	pushq	%rbx
	.cfi_def_cfa_offset 56
	.cfi_offset 3, -56
	leaq	-118784(%rsp), %r11
	.cfi_def_cfa 11, 118840
.LPSRL0:
	subq	$4096, %rsp
	orq	$0, (%rsp)
	cmpq	%r11, %rsp
	jne	.LPSRL0
	.cfi_def_cfa_register 7
	subq	$3672, %rsp
	.cfi_def_cfa_offset 122512
	.loc 1 24 16 is_stmt 0 view .LVU153
	movl	$9984, %edx
	xorl	%esi, %esi
.LBB69:
.LBB70:
.LBB71:
	.file 2 "/usr/include/x86_64-linux-gnu/bits/stdio2.h"
	.loc 2 107 23 view .LVU154
	leaq	.LC1(%rip), %r14
.LBE71:
.LBE70:
.LBE69:
	.loc 1 22 20 view .LVU155
	movq	%fs:40, %rax
	movq	%rax, 122440(%rsp)
	xorl	%eax, %eax
	.loc 1 23 2 is_stmt 1 view .LVU156
.LVL40:
	.loc 1 24 2 view .LVU157
	.loc 1 24 16 is_stmt 0 view .LVU158
	leaq	48(%rsp), %rdi
.LBB76:
.LBB77:
	.file 3 "/usr/include/x86_64-linux-gnu/bits/string_fortified.h"
	.loc 3 34 33 view .LVU159
	leaq	32(%rsp), %r12
.LBE77:
.LBE76:
	.loc 1 24 16 view .LVU160
	call	memset@PLT
.LVL41:
	.loc 1 25 2 is_stmt 1 view .LVU161
	.loc 1 25 7 is_stmt 0 view .LVU162
	pxor	%xmm0, %xmm0
	movl	$9984, %edx
	xorl	%esi, %esi
	leaq	10048(%rsp), %rdi
	movaps	%xmm0, 10032(%rsp)
	movq	%r12, %rbx
	leaq	97(%rsp), %rbp
	call	memset@PLT
.LVL42:
	.loc 1 26 2 is_stmt 1 view .LVU163
	.loc 1 27 2 view .LVU164
.LBB81:
.LBI76:
	.loc 3 31 28 view .LVU165
.LBB78:
	.loc 3 34 3 view .LVU166
	.loc 3 34 33 is_stmt 0 view .LVU167
	movl	$107, %r10d
	movq	%r12, 16(%rsp)
	movdqa	.LC17(%rip), %xmm0
.LBE78:
.LBE81:
.LBB82:
.LBB83:
	.loc 2 107 23 view .LVU168
	leaq	.LC0(%rip), %rdi
.LBE83:
.LBE82:
.LBB86:
.LBB79:
	.loc 3 34 33 view .LVU169
	movw	%r10w, 96(%rsp)
.LVL43:
	.loc 3 34 33 view .LVU170
.LBE79:
.LBE86:
	.loc 1 29 2 is_stmt 1 view .LVU171
	.loc 1 31 2 view .LVU172
.LBB87:
.LBI82:
	.loc 2 105 1 view .LVU173
.LBB84:
	.loc 2 107 3 view .LVU174
.LBE84:
.LBE87:
.LBB88:
.LBB80:
	.loc 3 34 33 is_stmt 0 view .LVU175
	movaps	%xmm0, 32(%rsp)
	movdqa	.LC18(%rip), %xmm0
	movaps	%xmm0, 48(%rsp)
	movdqa	.LC19(%rip), %xmm0
	movaps	%xmm0, 64(%rsp)
	movdqa	.LC20(%rip), %xmm0
	movaps	%xmm0, 80(%rsp)
.LBE80:
.LBE88:
.LBB89:
.LBB85:
	.loc 2 107 23 view .LVU176
	call	puts@PLT
.LVL44:
	.loc 2 107 23 view .LVU177
.LBE85:
.LBE89:
.LBB90:
	.loc 1 32 15 is_stmt 1 view .LVU178
	.p2align 4,,10
	.p2align 3
.L24:
	.loc 1 32 27 discriminator 3 view .LVU179
.LBB74:
.LBI70:
	.loc 2 105 1 discriminator 3 view .LVU180
.LBB72:
	.loc 2 107 3 discriminator 3 view .LVU181
.LBE72:
.LBE74:
	.loc 1 32 33 is_stmt 0 discriminator 3 view .LVU182
	movzbl	(%r12), %edx
.LBB75:
.LBB73:
	.loc 2 107 23 discriminator 3 view .LVU183
	movq	%r14, %rsi
	movl	$1, %edi
	xorl	%eax, %eax
	addq	$1, %r12
.LVL45:
	.loc 2 107 23 discriminator 3 view .LVU184
	call	__printf_chk@PLT
.LVL46:
	.loc 2 107 23 discriminator 3 view .LVU185
.LBE73:
.LBE75:
	.loc 1 32 2 is_stmt 1 discriminator 3 view .LVU186
	.loc 1 32 15 discriminator 3 view .LVU187
	cmpq	%rbp, %r12
	jne	.L24
.LBE90:
	.loc 1 32 53 view .LVU188
.LVL47:
.LBB91:
.LBI91:
	.loc 2 105 1 view .LVU189
.LBB92:
	.loc 2 107 3 view .LVU190
	.loc 2 107 23 is_stmt 0 view .LVU191
	movl	$10, %edi
.LBE92:
.LBE91:
.LBB94:
.LBB95:
.LBB96:
	leaq	.LC4(%rip), %r14
.LBE96:
.LBE95:
.LBE94:
.LBB101:
.LBB93:
	call	putchar@PLT
.LVL48:
	.loc 2 107 23 view .LVU192
.LBE93:
.LBE101:
	.loc 1 34 2 is_stmt 1 view .LVU193
	.loc 1 34 31 is_stmt 0 view .LVU194
	movq	16(%rsp), %r12
	movl	$83, %edx
	movl	$65, %esi
	movq	%r12, %rdi
	call	_Z7encryptPhjh@PLT
.LVL49:
	.loc 1 35 2 is_stmt 1 view .LVU195
.LBB102:
.LBB103:
	.loc 2 107 23 is_stmt 0 view .LVU196
	leaq	.LC2(%rip), %rsi
	movl	$1, %edi
.LBE103:
.LBE102:
	.loc 1 35 8 view .LVU197
	movzbl	%al, %eax
.LBB106:
.LBB104:
	.loc 2 107 23 view .LVU198
	movl	%eax, %edx
.LBE104:
.LBE106:
	.loc 1 35 8 view .LVU199
	movl	%eax, 28(%rsp)
.LVL50:
.LBB107:
.LBI102:
	.loc 2 105 1 is_stmt 1 view .LVU200
.LBB105:
	.loc 2 107 3 view .LVU201
	.loc 2 107 23 is_stmt 0 view .LVU202
	xorl	%eax, %eax
.LVL51:
	.loc 2 107 23 view .LVU203
	call	__printf_chk@PLT
.LVL52:
	.loc 2 107 23 view .LVU204
.LBE105:
.LBE107:
	.loc 1 36 2 is_stmt 1 view .LVU205
.LBB108:
.LBI108:
	.loc 2 105 1 view .LVU206
.LBB109:
	.loc 2 107 3 view .LVU207
	.loc 2 107 23 is_stmt 0 view .LVU208
	leaq	.LC3(%rip), %rdi
	call	puts@PLT
.LVL53:
	.loc 2 107 23 view .LVU209
.LBE109:
.LBE108:
.LBB110:
	.loc 1 37 15 is_stmt 1 view .LVU210
	.p2align 4,,10
	.p2align 3
.L25:
	.loc 1 37 27 discriminator 3 view .LVU211
.LBB99:
.LBI95:
	.loc 2 105 1 discriminator 3 view .LVU212
.LBB97:
	.loc 2 107 3 discriminator 3 view .LVU213
.LBE97:
.LBE99:
	.loc 1 37 33 is_stmt 0 discriminator 3 view .LVU214
	movzbl	(%r12), %edx
.LBB100:
.LBB98:
	.loc 2 107 23 discriminator 3 view .LVU215
	movq	%r14, %rsi
	movl	$1, %edi
	xorl	%eax, %eax
	addq	$1, %r12
.LVL54:
	.loc 2 107 23 discriminator 3 view .LVU216
	call	__printf_chk@PLT
.LVL55:
	.loc 2 107 23 discriminator 3 view .LVU217
.LBE98:
.LBE100:
	.loc 1 37 2 is_stmt 1 discriminator 3 view .LVU218
	.loc 1 37 15 discriminator 3 view .LVU219
	cmpq	%rbp, %r12
	jne	.L25
.LBE110:
	.loc 1 37 56 view .LVU220
.LVL56:
.LBB111:
.LBI111:
	.loc 2 105 1 view .LVU221
.LBB112:
	.loc 2 107 3 view .LVU222
	.loc 2 107 23 is_stmt 0 view .LVU223
	movl	$10, %edi
.LBE112:
.LBE111:
.LBB114:
.LBB115:
	.loc 2 36 34 view .LVU224
	xorl	%r12d, %r12d
.LBE115:
.LBE114:
	.loc 1 39 8 view .LVU225
	movl	$28, %r15d
.LBB119:
.LBB113:
	.loc 2 107 23 view .LVU226
	call	putchar@PLT
.LVL57:
	.loc 2 107 23 view .LVU227
.LBE113:
.LBE119:
	.loc 1 38 2 is_stmt 1 view .LVU228
	.loc 1 39 2 view .LVU229
.LBB120:
.LBI114:
	.loc 2 34 28 view .LVU230
.LBB116:
	.loc 2 36 3 view .LVU231
	.loc 2 36 34 is_stmt 0 view .LVU232
	movdqa	.LC21(%rip), %xmm0
	movabsq	$4404623082692833123, %rax
	movl	$151681824, 10056(%rsp)
	movq	%rax, 10048(%rsp)
	leaq	10032(%rsp), %rax
.LVL58:
	.loc 2 36 34 view .LVU233
.LBE116:
.LBE120:
.LBB121:
.LBB122:
.LBB123:
	leaq	.LC4(%rip), %r14
.LBE123:
.LBE122:
.LBE121:
.LBB136:
.LBB117:
	movb	$0, 10060(%rsp)
.LVL59:
	.loc 2 36 34 view .LVU234
.LBE117:
.LBE136:
	.loc 1 40 2 is_stmt 1 view .LVU235
.LBB137:
	.loc 1 40 15 view .LVU236
	movq	%rax, 8(%rsp)
.LBE137:
.LBB138:
.LBB118:
	.loc 2 36 34 is_stmt 0 view .LVU237
	movaps	%xmm0, 10032(%rsp)
	jmp	.L29
.LVL60:
	.p2align 4,,10
	.p2align 3
.L40:
	.loc 2 36 34 view .LVU238
.LBE118:
.LBE138:
.LBB139:
	imull	$-858993459, %r12d, %eax
	rorl	%eax
	.loc 1 41 10 discriminator 1 view .LVU239
	cmpl	$429496729, %eax
	jbe	.L39
.L27:
	.loc 1 42 3 is_stmt 1 discriminator 2 view .LVU240
.LVL61:
.LBB128:
.LBI122:
	.loc 2 34 28 discriminator 2 view .LVU241
.LBB124:
	.loc 2 36 3 discriminator 2 view .LVU242
	.loc 2 36 34 is_stmt 0 discriminator 2 view .LVU243
	movq	16(%rsp), %rax
	movq	%r14, %rcx
	movq	$-1, %rdx
	movl	$1, %esi
.LBE124:
.LBE128:
	.loc 1 42 9 discriminator 2 view .LVU244
	addl	$5, %r15d
.LVL62:
.LBB129:
.LBB125:
	.loc 2 36 34 discriminator 2 view .LVU245
	movzbl	(%rax,%r12), %r8d
	xorl	%eax, %eax
	call	__sprintf_chk@PLT
.LVL63:
	.loc 2 36 34 discriminator 2 view .LVU246
.LBE125:
.LBE129:
	.loc 1 40 2 is_stmt 1 discriminator 2 view .LVU247
	.loc 1 40 15 discriminator 2 view .LVU248
	cmpl	$63, %r13d
	je	.L28
.LVL64:
.L33:
	.loc 1 40 15 is_stmt 0 discriminator 2 view .LVU249
	addq	$1, %r12
.LVL65:
.L29:
	.loc 1 40 15 discriminator 2 view .LVU250
	movslq	%r15d, %rdi
	movl	%r12d, %r13d
.LVL66:
	.loc 1 41 3 is_stmt 1 view .LVU251
	addq	8(%rsp), %rdi
	testq	%r12, %r12
	jne	.L40
	.loc 1 42 3 view .LVU252
.LVL67:
.LBB130:
	.loc 2 34 28 view .LVU253
.LBB126:
	.loc 2 36 3 view .LVU254
	.loc 2 36 34 is_stmt 0 view .LVU255
	movq	16(%rsp), %rax
	movq	%r14, %rcx
	movq	$-1, %rdx
	movl	$1, %esi
.LBE126:
.LBE130:
	.loc 1 42 9 view .LVU256
	addl	$5, %r15d
.LVL68:
.LBB131:
.LBB127:
	.loc 2 36 34 view .LVU257
	movzbl	(%rax), %r8d
	xorl	%eax, %eax
	call	__sprintf_chk@PLT
.LVL69:
	.loc 2 36 34 view .LVU258
.LBE127:
.LBE131:
	.loc 1 40 2 is_stmt 1 view .LVU259
	.loc 1 40 15 view .LVU260
	jmp	.L33
.LVL70:
	.p2align 4,,10
	.p2align 3
.L39:
	.loc 1 41 23 discriminator 2 view .LVU261
.LBB132:
.LBI132:
	.loc 2 34 28 discriminator 2 view .LVU262
.LBB133:
	.loc 2 36 3 discriminator 2 view .LVU263
	.loc 2 36 34 is_stmt 0 discriminator 2 view .LVU264
	movl	$2314, %r9d
.LBE133:
.LBE132:
	.loc 1 41 29 discriminator 2 view .LVU265
	addl	$2, %r15d
.LVL71:
.LBB135:
.LBB134:
	.loc 2 36 34 discriminator 2 view .LVU266
	movb	$0, 2(%rdi)
.LVL72:
	.loc 2 36 34 discriminator 2 view .LVU267
	movw	%r9w, (%rdi)
	movslq	%r15d, %rdi
	addq	8(%rsp), %rdi
.LBE134:
.LBE135:
	jmp	.L27
.LVL73:
	.p2align 4,,10
	.p2align 3
.L28:
	.loc 2 36 34 discriminator 2 view .LVU268
.LBE139:
	.loc 1 44 2 is_stmt 1 view .LVU269
.LBB140:
.LBI140:
	.loc 2 34 28 view .LVU270
.LBB141:
	.loc 2 36 3 view .LVU271
	.loc 2 36 34 is_stmt 0 view .LVU272
	movzbl	96(%rsp), %r8d
	movl	$1, %esi
.LBE141:
.LBE140:
	.loc 1 44 26 view .LVU273
	movslq	%r15d, %rdi
.LBB144:
.LBB142:
	.loc 2 36 34 view .LVU274
	xorl	%eax, %eax
	leaq	.LC5(%rip), %rcx
.LBE142:
.LBE144:
	.loc 1 44 17 view .LVU275
	addq	8(%rsp), %rdi
.LBB145:
.LBB143:
	.loc 2 36 34 view .LVU276
	movq	$-1, %rdx
	call	__sprintf_chk@PLT
.LVL74:
	.loc 2 36 34 view .LVU277
.LBE143:
.LBE145:
	.loc 1 47 2 is_stmt 1 view .LVU278
	.loc 1 47 9 is_stmt 0 view .LVU279
	movl	28(%rsp), %edx
	movq	16(%rsp), %rdi
	movl	$65, %esi
.LBB146:
.LBB147:
.LBB148:
	.loc 2 107 23 view .LVU280
	leaq	.LC1(%rip), %r14
.LBE148:
.LBE147:
.LBE146:
	.loc 1 47 9 view .LVU281
	call	_Z7decryptPhjh@PLT
.LVL75:
	.loc 1 49 2 is_stmt 1 view .LVU282
.LBB153:
.LBI153:
	.loc 2 105 1 view .LVU283
.LBB154:
	.loc 2 107 3 view .LVU284
	.loc 2 107 23 is_stmt 0 view .LVU285
	leaq	.LC6(%rip), %rdi
	call	puts@PLT
.LVL76:
	.loc 2 107 23 view .LVU286
.LBE154:
.LBE153:
.LBB155:
	.loc 1 50 15 is_stmt 1 view .LVU287
	.p2align 4,,10
	.p2align 3
.L30:
	.loc 1 50 27 discriminator 3 view .LVU288
.LBB151:
.LBI147:
	.loc 2 105 1 discriminator 3 view .LVU289
.LBB149:
	.loc 2 107 3 discriminator 3 view .LVU290
.LBE149:
.LBE151:
	.loc 1 50 33 is_stmt 0 discriminator 3 view .LVU291
	movzbl	(%rbx), %edx
.LBB152:
.LBB150:
	.loc 2 107 23 discriminator 3 view .LVU292
	movq	%r14, %rsi
	movl	$1, %edi
	xorl	%eax, %eax
	addq	$1, %rbx
.LVL77:
	.loc 2 107 23 discriminator 3 view .LVU293
	call	__printf_chk@PLT
.LVL78:
	.loc 2 107 23 discriminator 3 view .LVU294
.LBE150:
.LBE152:
	.loc 1 50 2 is_stmt 1 discriminator 3 view .LVU295
	.loc 1 50 15 discriminator 3 view .LVU296
	cmpq	%rbp, %rbx
	jne	.L30
.LBE155:
	.loc 1 50 53 view .LVU297
.LVL79:
.LBB156:
.LBI156:
	.loc 2 105 1 view .LVU298
.LBB157:
	.loc 2 107 3 view .LVU299
	.loc 2 107 23 is_stmt 0 view .LVU300
	movl	$10, %edi
.LBE157:
.LBE156:
.LBB159:
.LBB160:
	.loc 2 36 34 view .LVU301
	leaq	20032(%rsp), %rbp
.LBE160:
.LBE159:
.LBB167:
.LBB158:
	.loc 2 107 23 view .LVU302
	call	putchar@PLT
.LVL80:
	.loc 2 107 23 view .LVU303
.LBE158:
.LBE167:
	.loc 1 51 2 is_stmt 1 view .LVU304
.LBB168:
.LBI168:
	.loc 2 105 1 view .LVU305
.LBB169:
	.loc 2 107 3 view .LVU306
	.loc 2 107 23 is_stmt 0 view .LVU307
	leaq	.LC7(%rip), %rdx
	leaq	.LC8(%rip), %rsi
	xorl	%eax, %eax
	movl	$1, %edi
	call	__printf_chk@PLT
.LVL81:
	.loc 2 107 23 view .LVU308
.LBE169:
.LBE168:
	.loc 1 52 2 is_stmt 1 view .LVU309
.LBB170:
.LBI170:
	.loc 2 105 1 view .LVU310
.LBB171:
	.loc 2 107 3 view .LVU311
	.loc 2 107 23 is_stmt 0 view .LVU312
	movq	16(%rsp), %rdx
	leaq	.LC9(%rip), %rsi
	xorl	%eax, %eax
	movl	$1, %edi
	call	__printf_chk@PLT
.LVL82:
	.loc 2 107 23 view .LVU313
.LBE171:
.LBE170:
	.loc 1 54 2 is_stmt 1 view .LVU314
	.loc 1 55 2 view .LVU315
	.loc 1 56 2 view .LVU316
.LBB172:
.LBI159:
	.loc 2 34 28 view .LVU317
.LBB161:
	.loc 2 36 3 view .LVU318
	.loc 2 36 34 is_stmt 0 view .LVU319
	movl	$15976, %eax
.LBE161:
.LBE172:
.LBB173:
.LBB174:
	movl	$2685, %edx
.LBE174:
.LBE173:
.LBB183:
.LBB162:
	movdqa	.LC22(%rip), %xmm0
	movw	%ax, 20068(%rsp)
.LBE162:
.LBE183:
.LBB184:
.LBB185:
	movl	$9, %ecx
	movabsq	$7955997338050522729, %rax
.LBE185:
.LBE184:
.LBB190:
.LBB191:
	leaq	20246(%rsp), %rdi
.LBE191:
.LBE190:
.LBB198:
.LBB163:
	movaps	%xmm0, 20032(%rsp)
	movdqa	.LC23(%rip), %xmm0
.LBE163:
.LBE198:
.LBB199:
.LBB192:
	leaq	.LC10(%rip), %rsi
.LBE192:
.LBE199:
.LBB200:
.LBB175:
	movw	%dx, 20231(%rsp)
.LBE175:
.LBE200:
.LBB201:
.LBB193:
	movq	8(%rsp), %rdx
.LBE193:
.LBE201:
.LBB202:
.LBB164:
	movaps	%xmm0, 20048(%rsp)
.LBE164:
.LBE202:
.LBB203:
.LBB176:
	movdqa	.LC24(%rip), %xmm0
.LBE176:
.LBE203:
.LBB204:
.LBB186:
	movq	%rax, 20233(%rsp)
.LBE186:
.LBE204:
.LBB205:
.LBB194:
	xorl	%eax, %eax
.LBE194:
.LBE205:
.LBB206:
.LBB177:
	movups	%xmm0, 20071(%rsp)
	movdqa	.LC25(%rip), %xmm0
.LBE177:
.LBE206:
.LBB207:
.LBB187:
	movw	%cx, 20245(%rsp)
.LBE187:
.LBE207:
.LBB208:
.LBB178:
	movups	%xmm0, 20087(%rsp)
	movdqa	.LC26(%rip), %xmm0
.LBE178:
.LBE208:
.LBB209:
.LBB165:
	movl	$778530409, 20064(%rsp)
.LBE165:
.LBE209:
.LBB210:
.LBB179:
	movups	%xmm0, 20103(%rsp)
	movdqa	.LC27(%rip), %xmm0
.LBE179:
.LBE210:
.LBB211:
.LBB166:
	movb	$10, 20070(%rsp)
.LVL83:
	.loc 2 36 34 view .LVU320
.LBE166:
.LBE211:
	.loc 1 57 2 is_stmt 1 view .LVU321
.LBB212:
.LBI173:
	.loc 2 34 28 view .LVU322
.LBB180:
	.loc 2 36 3 view .LVU323
	.loc 2 36 3 is_stmt 0 view .LVU324
.LBE180:
.LBE212:
	.loc 1 63 2 is_stmt 1 view .LVU325
.LBB213:
.LBI184:
	.loc 2 34 28 view .LVU326
.LBB188:
	.loc 2 36 3 view .LVU327
	.loc 2 36 3 is_stmt 0 view .LVU328
.LBE188:
.LBE213:
	.loc 1 64 2 is_stmt 1 view .LVU329
.LBB214:
.LBI190:
	.loc 2 34 28 view .LVU330
.LBB195:
	.loc 2 36 3 view .LVU331
.LBE195:
.LBE214:
.LBB215:
.LBB181:
	.loc 2 36 34 is_stmt 0 view .LVU332
	movups	%xmm0, 20119(%rsp)
	movdqa	.LC28(%rip), %xmm0
.LBE181:
.LBE215:
.LBB216:
.LBB189:
	movl	$175843624, 20241(%rsp)
.LBE189:
.LBE216:
.LBB217:
.LBB182:
	movups	%xmm0, 20135(%rsp)
	movdqa	.LC29(%rip), %xmm0
	movups	%xmm0, 20151(%rsp)
	movdqa	.LC30(%rip), %xmm0
	movups	%xmm0, 20167(%rsp)
	movdqa	.LC31(%rip), %xmm0
	movups	%xmm0, 20183(%rsp)
	movdqa	.LC32(%rip), %xmm0
	movups	%xmm0, 20199(%rsp)
	movdqa	.LC33(%rip), %xmm0
	movups	%xmm0, 20215(%rsp)
.LBE182:
.LBE217:
.LBB218:
.LBB196:
	call	sprintf@PLT
.LVL84:
	.loc 2 36 34 view .LVU333
.LBE196:
.LBE218:
.LBB219:
.LBB220:
	movl	$89, %r8d
	movl	$1, %esi
	leaq	.LC11(%rip), %rcx
.LBE220:
.LBE219:
	.loc 1 64 8 view .LVU334
	leal	214(%rax), %edi
.LBB223:
.LBB197:
	.loc 2 36 34 view .LVU335
	movl	%eax, %ebx
.LVL85:
	.loc 2 36 34 view .LVU336
.LBE197:
.LBE223:
	.loc 1 65 2 is_stmt 1 view .LVU337
.LBB224:
.LBI219:
	.loc 2 34 28 view .LVU338
.LBB221:
	.loc 2 36 3 view .LVU339
	.loc 2 36 34 is_stmt 0 view .LVU340
	movq	$-1, %rdx
	xorl	%eax, %eax
.LVL86:
	.loc 2 36 34 view .LVU341
.LBE221:
.LBE224:
	.loc 1 65 28 view .LVU342
	movslq	%edi, %rdi
	.loc 1 65 17 view .LVU343
	addq	%rbp, %rdi
.LVL87:
.LBB225:
.LBB222:
	.loc 2 36 34 view .LVU344
	call	__sprintf_chk@PLT
.LVL88:
	.loc 2 36 34 view .LVU345
.LBE222:
.LBE225:
	.loc 1 66 2 is_stmt 1 view .LVU346
.LBB226:
.LBI226:
	.loc 2 34 28 view .LVU347
.LBB227:
	.loc 2 36 3 view .LVU348
.LBE227:
.LBE226:
	.loc 1 65 8 is_stmt 0 view .LVU349
	leal	243(%rbx), %eax
.LVL89:
.LBB233:
.LBB234:
	.loc 2 36 34 view .LVU350
	movl	$2619, %esi
.LBE234:
.LBE233:
.LBB240:
.LBB228:
	movdqa	.LC34(%rip), %xmm0
.LBE228:
.LBE240:
	.loc 1 66 28 view .LVU351
	cltq
	.loc 1 67 8 view .LVU352
	leal	316(%rbx), %edi
.LBB241:
.LBB229:
	.loc 2 36 34 view .LVU353
	movabsq	$2879799083494245, %rcx
.LBE229:
.LBE241:
.LBB242:
.LBB243:
	movq	$-1, %rdx
.LBE243:
.LBE242:
	.loc 1 66 17 view .LVU354
	addq	%rbp, %rax
.LVL90:
	.loc 1 68 28 view .LVU355
	movslq	%edi, %rdi
.LBB248:
.LBB230:
	.loc 2 36 34 view .LVU356
	movups	%xmm0, (%rax)
	movdqa	.LC35(%rip), %xmm0
.LBE230:
.LBE248:
	.loc 1 68 17 view .LVU357
	addq	%rbp, %rdi
.LBB249:
.LBB231:
	.loc 2 36 34 view .LVU358
	movq	%rcx, 32(%rax)
.LVL91:
	.loc 2 36 34 view .LVU359
.LBE231:
.LBE249:
	.loc 1 67 2 is_stmt 1 view .LVU360
.LBB250:
.LBI233:
	.loc 2 34 28 view .LVU361
.LBB235:
	.loc 2 36 3 view .LVU362
.LBE235:
.LBE250:
.LBB251:
.LBB244:
	.loc 2 36 34 is_stmt 0 view .LVU363
	leaq	.LC12(%rip), %rcx
.LBE244:
.LBE251:
.LBB252:
.LBB232:
	movups	%xmm0, 16(%rax)
.LBE232:
.LBE252:
	.loc 1 66 8 view .LVU364
	leal	282(%rbx), %eax
.LVL92:
.LBB253:
.LBB236:
	.loc 2 36 34 view .LVU365
	movdqa	.LC36(%rip), %xmm0
.LBE236:
.LBE253:
	.loc 1 67 28 view .LVU366
	cltq
	.loc 1 67 17 view .LVU367
	addq	%rbp, %rax
.LVL93:
.LBB254:
.LBB237:
	.loc 2 36 34 view .LVU368
	movw	%si, 32(%rax)
.LBE237:
.LBE254:
.LBB255:
.LBB245:
	movl	$1, %esi
.LBE245:
.LBE255:
.LBB256:
.LBB238:
	movups	%xmm0, (%rax)
	movdqa	.LC37(%rip), %xmm0
	movb	$0, 34(%rax)
.LVL94:
	.loc 2 36 34 view .LVU369
.LBE238:
.LBE256:
	.loc 1 68 2 is_stmt 1 view .LVU370
.LBB257:
.LBI242:
	.loc 2 34 28 view .LVU371
.LBB246:
	.loc 2 36 3 view .LVU372
.LBE246:
.LBE257:
.LBB258:
.LBB239:
	.loc 2 36 34 is_stmt 0 view .LVU373
	movups	%xmm0, 16(%rax)
.LBE239:
.LBE258:
.LBB259:
.LBB247:
	xorl	%eax, %eax
	call	__sprintf_chk@PLT
.LVL95:
	.loc 2 36 34 view .LVU374
.LBE247:
.LBE259:
	.loc 1 69 2 is_stmt 1 view .LVU375
.LBB260:
.LBI260:
	.loc 2 34 28 view .LVU376
.LBB261:
	.loc 2 36 3 view .LVU377
.LBE261:
.LBE260:
	.loc 1 68 8 is_stmt 0 view .LVU378
	leal	387(%rbx), %eax
.LVL96:
.LBB265:
.LBB262:
	.loc 2 36 34 view .LVU379
	movl	$10, %edi
	movabsq	$2336931105441411593, %rcx
.LBE262:
.LBE265:
	.loc 1 69 28 view .LVU380
	cltq
.LBB266:
.LBB267:
	.loc 2 36 34 view .LVU381
	movl	$10, %r8d
.LBE267:
.LBE266:
	.loc 1 69 17 view .LVU382
	addq	%rbp, %rax
.LVL97:
.LBB270:
.LBB263:
	.loc 2 36 34 view .LVU383
	movq	%rcx, (%rax)
	movw	%di, 12(%rax)
.LVL98:
	.loc 2 36 34 view .LVU384
.LBE263:
.LBE270:
	.loc 1 70 2 is_stmt 1 view .LVU385
.LBB271:
.LBI266:
	.loc 2 34 28 view .LVU386
.LBB268:
	.loc 2 36 3 view .LVU387
.LBE268:
.LBE271:
.LBB272:
.LBB273:
	.loc 2 107 23 is_stmt 0 view .LVU388
	leaq	.LC13(%rip), %rdi
.LBE273:
.LBE272:
.LBB275:
.LBB264:
	.loc 2 36 34 view .LVU389
	movl	$2097822512, 8(%rax)
.LBE264:
.LBE275:
	.loc 1 69 8 view .LVU390
	leal	400(%rbx), %eax
.LVL99:
	.loc 1 70 8 view .LVU391
	addl	$401, %ebx
.LVL100:
	.loc 1 70 28 view .LVU392
	cltq
	.loc 1 71 20 view .LVU393
	movslq	%ebx, %r12
.LVL101:
.LBB276:
.LBB269:
	.loc 2 36 34 view .LVU394
	movw	%r8w, 0(%rbp,%rax)
.LVL102:
	.loc 2 36 34 view .LVU395
.LBE269:
.LBE276:
	.loc 1 71 2 is_stmt 1 view .LVU396
	.loc 1 71 20 is_stmt 0 view .LVU397
	movb	$0, 20032(%rsp,%r12)
	.loc 1 73 2 is_stmt 1 view .LVU398
.LVL103:
.LBB277:
.LBI272:
	.loc 2 105 1 view .LVU399
.LBB274:
	.loc 2 107 3 view .LVU400
	.loc 2 107 23 is_stmt 0 view .LVU401
	call	puts@PLT
.LVL104:
	.loc 2 107 23 view .LVU402
.LBE274:
.LBE277:
	.loc 1 74 2 is_stmt 1 view .LVU403
.LBB278:
.LBI278:
	.loc 2 105 1 view .LVU404
.LBB279:
	.loc 2 107 3 view .LVU405
	.loc 2 107 23 is_stmt 0 view .LVU406
	movq	%rbp, %rdx
	movl	$1, %edi
	xorl	%eax, %eax
	leaq	.LC10(%rip), %rsi
	call	__printf_chk@PLT
.LVL105:
	.loc 2 107 23 view .LVU407
.LBE279:
.LBE278:
	.loc 1 76 2 is_stmt 1 view .LVU408
	.loc 1 76 18 is_stmt 0 view .LVU409
	leaq	.LC14(%rip), %rsi
	leaq	.LC15(%rip), %rdi
	call	fopen@PLT
.LVL106:
	movq	%rax, %r13
.LVL107:
	.loc 1 77 2 is_stmt 1 view .LVU410
	testq	%rax, %rax
	je	.L31
	.loc 1 78 3 view .LVU411
	.loc 1 78 9 is_stmt 0 view .LVU412
	movq	%rbp, %rdi
	movq	%rax, %rcx
	movq	%r12, %rdx
	movl	$1, %esi
	call	fwrite@PLT
.LVL108:
	.loc 1 79 3 is_stmt 1 view .LVU413
	.loc 1 79 9 is_stmt 0 view .LVU414
	movq	%r13, %rdi
	call	fclose@PLT
.LVL109:
.L23:
	.loc 1 83 1 view .LVU415
	movq	122440(%rsp), %rax
	xorq	%fs:40, %rax
	jne	.L41
	addq	$122456, %rsp
	.cfi_remember_state
	.cfi_def_cfa_offset 56
	popq	%rbx
	.cfi_def_cfa_offset 48
.LVL110:
	.loc 1 83 1 view .LVU416
	popq	%rbp
	.cfi_def_cfa_offset 40
	popq	%r12
	.cfi_def_cfa_offset 32
.LVL111:
	.loc 1 83 1 view .LVU417
	popq	%r13
	.cfi_def_cfa_offset 24
.LVL112:
	.loc 1 83 1 view .LVU418
	popq	%r14
	.cfi_def_cfa_offset 16
	popq	%r15
	.cfi_def_cfa_offset 8
	ret
.LVL113:
.L31:
	.cfi_restore_state
	.loc 1 81 3 is_stmt 1 view .LVU419
	.loc 1 81 9 is_stmt 0 view .LVU420
	leaq	.LC16(%rip), %rdi
	call	perror@PLT
.LVL114:
	.loc 1 83 1 view .LVU421
	jmp	.L23
.L41:
	call	__stack_chk_fail@PLT
.LVL115:
	.cfi_endproc
.LFE59:
	.size	_Z12creat_decodev, .-_Z12creat_decodev
	.p2align 4
	.globl	_Z6tttttev
	.type	_Z6tttttev, @function
_Z6tttttev:
.LFB60:
	.loc 1 85 13 is_stmt 1 view -0
	.cfi_startproc
	endbr64
	.loc 1 86 2 view .LVU423
	.loc 1 85 13 is_stmt 0 view .LVU424
	subq	$8, %rsp
	.cfi_def_cfa_offset 16
	.loc 1 86 14 view .LVU425
	call	_Z12creat_decodev@PLT
.LVL116:
	.loc 1 87 2 is_stmt 1 view .LVU426
	.loc 1 88 1 is_stmt 0 view .LVU427
	xorl	%eax, %eax
	addq	$8, %rsp
	.cfi_def_cfa_offset 8
	ret
	.cfi_endproc
.LFE60:
	.size	_Z6tttttev, .-_Z6tttttev
	.section	.rodata.cst16,"aM",@progbits,16
	.align 16
.LC17:
	.quad	3473229011036156985
	.quad	4051049670258078308
	.align 16
.LC18:
	.quad	7293408511658570037
	.quad	7220785562468836658
	.align 16
.LC19:
	.quad	3976741384524869923
	.quad	4846263977995346737
	.align 16
.LC20:
	.quad	3328492392661802823
	.quad	8097804406637145651
	.align 16
.LC21:
	.quad	7234309766870429301
	.quad	7954799992452440864
	.align 16
.LC22:
	.quad	7306093603886885155
	.quad	3346008928330923040
	.align 16
.LC23:
	.quad	7810207576629067368
	.quad	8247343519700968565
	.align 16
.LC24:
	.quad	7162240872689004406
	.quad	8317714378412554610
	.align 16
.LC25:
	.quad	7521891418209412969
	.quad	8439794561947038305
	.align 16
.LC26:
	.quad	2334102031740531566
	.quad	7312272888176078441
	.align 16
.LC27:
	.quad	7955443211268595756
	.quad	2338038257526269029
	.align 16
.LC28:
	.quad	2308793042556511595
	.quad	6782554515315892256
	.align 16
.LC29:
	.quad	737254640435863613
	.quad	2914514393278455840
	.align 16
.LC30:
	.quad	7234309766870429301
	.quad	3476050075513153824
	.align 16
.LC31:
	.quad	7312272888645099579
	.quad	2308703024369442875
	.align 16
.LC32:
	.quad	2314885437855899680
	.quad	7591784880143343648
	.align 16
.LC33:
	.quad	8747515637449760861
	.quad	755795634818124347
	.align 16
.LC34:
	.quad	8390339637992055817
	.quad	3199073539888932136
	.align 16
.LC35:
	.quad	7289188625529071987
	.quad	7218189818221519726
	.align 16
.LC36:
	.quad	2911142226705936393
	.quad	-1754509508906195166
	.align 16
.LC37:
	.quad	-4714167508353641817
	.quad	2964101641028341478
	.text
.Letext0:
	.file 4 "/usr/lib/gcc/x86_64-linux-gnu/9/include/stddef.h"
	.file 5 "/usr/include/x86_64-linux-gnu/bits/types.h"
	.file 6 "/usr/include/x86_64-linux-gnu/bits/types/struct_FILE.h"
	.file 7 "/usr/include/x86_64-linux-gnu/bits/types/FILE.h"
	.file 8 "/usr/include/stdio.h"
	.file 9 "/usr/include/x86_64-linux-gnu/bits/sys_errlist.h"
	.section	.note.GNU-stack,"",@progbits
	.section	.note.gnu.property,"a"
	.align 8
	.long	 1f - 0f
	.long	 4f - 1f
	.long	 5
0:
	.string	 "GNU"
1:
	.align 8
	.long	 0xc0000002
	.long	 3f - 2f
2:
	.long	 0x3
3:
	.align 8
4:
