
obj/log_info.o:     file format elf64-x86-64


Disassembly of section .text:

0000000000000000 <set_log_value>:
       0:	f3 0f 1e fa          	endbr64 
       4:	48 85 ff             	test   %rdi,%rdi
       7:	74 06                	je     f <set_log_value+0xf>
       9:	89 b7 88 00 00 00    	mov    %esi,0x88(%rdi)
       f:	c3                   	retq   

0000000000000010 <close_log>:
      10:	f3 0f 1e fa          	endbr64 
      14:	48 85 ff             	test   %rdi,%rdi
      17:	74 57                	je     70 <close_log+0x60>
      19:	55                   	push   %rbp
      1a:	48 89 fd             	mov    %rdi,%rbp
      1d:	48 8b 3f             	mov    (%rdi),%rdi
      20:	48 85 ff             	test   %rdi,%rdi
      23:	74 05                	je     2a <close_log+0x1a>
      25:	e8 00 00 00 00       	callq  2a <close_log+0x1a>
      2a:	48 89 ef             	mov    %rbp,%rdi
      2d:	e8 00 00 00 00       	callq  32 <close_log+0x22>
      32:	8b 05 00 00 00 00    	mov    0x0(%rip),%eax        # 38 <close_log+0x28>
      38:	83 e8 01             	sub    $0x1,%eax
      3b:	89 05 00 00 00 00    	mov    %eax,0x0(%rip)        # 41 <close_log+0x31>
      41:	85 c0                	test   %eax,%eax
      43:	7e 0b                	jle    50 <close_log+0x40>
      45:	5d                   	pop    %rbp
      46:	c3                   	retq   
      47:	66 0f 1f 84 00 00 00 	nopw   0x0(%rax,%rax,1)
      4e:	00 00 
      50:	48 8b 3d 00 00 00 00 	mov    0x0(%rip),%rdi        # 57 <close_log+0x47>
      57:	48 85 ff             	test   %rdi,%rdi
      5a:	74 e9                	je     45 <close_log+0x35>
      5c:	e8 00 00 00 00       	callq  61 <close_log+0x51>
      61:	5d                   	pop    %rbp
      62:	48 c7 05 00 00 00 00 	movq   $0x0,0x0(%rip)        # 6d <close_log+0x5d>
      69:	00 00 00 00 
      6d:	c3                   	retq   
      6e:	66 90                	xchg   %ax,%ax
      70:	c3                   	retq   
      71:	66 66 2e 0f 1f 84 00 	data16 nopw %cs:0x0(%rax,%rax,1)
      78:	00 00 00 00 
      7c:	0f 1f 40 00          	nopl   0x0(%rax)

0000000000000080 <__get_printfTime_L>:
      80:	f3 0f 1e fa          	endbr64 
      84:	48 83 ec 68          	sub    $0x68,%rsp
      88:	31 f6                	xor    %esi,%esi
      8a:	64 48 8b 04 25 28 00 	mov    %fs:0x28,%rax
      91:	00 00 
      93:	48 89 44 24 58       	mov    %rax,0x58(%rsp)
      98:	31 c0                	xor    %eax,%eax
      9a:	48 8d 7c 24 10       	lea    0x10(%rsp),%rdi
      9f:	e8 00 00 00 00       	callq  a4 <__get_printfTime_L+0x24>
      a4:	48 8b 44 24 10       	mov    0x10(%rsp),%rax
      a9:	48 8d 74 24 20       	lea    0x20(%rsp),%rsi
      ae:	48 8d 7c 24 08       	lea    0x8(%rsp),%rdi
      b3:	48 89 44 24 08       	mov    %rax,0x8(%rsp)
      b8:	e8 00 00 00 00       	callq  bd <__get_printfTime_L+0x3d>
      bd:	48 83 ec 08          	sub    $0x8,%rsp
      c1:	b9 14 00 00 00       	mov    $0x14,%ecx
      c6:	4c 8d 05 00 00 00 00 	lea    0x0(%rip),%r8        # cd <__get_printfTime_L+0x4d>
      cd:	8b 44 24 28          	mov    0x28(%rsp),%eax
      d1:	ba 01 00 00 00       	mov    $0x1,%edx
      d6:	be 14 00 00 00       	mov    $0x14,%esi
      db:	48 8d 3d 00 00 00 00 	lea    0x0(%rip),%rdi        # e2 <__get_printfTime_L+0x62>
      e2:	50                   	push   %rax
      e3:	8b 44 24 34          	mov    0x34(%rsp),%eax
      e7:	50                   	push   %rax
      e8:	8b 44 24 40          	mov    0x40(%rsp),%eax
      ec:	50                   	push   %rax
      ed:	8b 44 24 4c          	mov    0x4c(%rsp),%eax
      f1:	50                   	push   %rax
      f2:	8b 44 24 58          	mov    0x58(%rsp),%eax
      f6:	83 c0 01             	add    $0x1,%eax
      f9:	50                   	push   %rax
      fa:	8b 44 24 64          	mov    0x64(%rsp),%eax
      fe:	44 8d 88 6c 07 00 00 	lea    0x76c(%rax),%r9d
     105:	31 c0                	xor    %eax,%eax
     107:	e8 00 00 00 00       	callq  10c <__get_printfTime_L+0x8c>
     10c:	48 83 c4 30          	add    $0x30,%rsp
     110:	48 8b 44 24 58       	mov    0x58(%rsp),%rax
     115:	64 48 33 04 25 28 00 	xor    %fs:0x28,%rax
     11c:	00 00 
     11e:	75 0c                	jne    12c <__get_printfTime_L+0xac>
     120:	48 8d 05 00 00 00 00 	lea    0x0(%rip),%rax        # 127 <__get_printfTime_L+0xa7>
     127:	48 83 c4 68          	add    $0x68,%rsp
     12b:	c3                   	retq   
     12c:	e8 00 00 00 00       	callq  131 <__get_printfTime_L+0xb1>
     131:	66 66 2e 0f 1f 84 00 	data16 nopw %cs:0x0(%rax,%rax,1)
     138:	00 00 00 00 
     13c:	0f 1f 40 00          	nopl   0x0(%rax)

0000000000000140 <create_dir>:
     140:	f3 0f 1e fa          	endbr64 
     144:	48 85 ff             	test   %rdi,%rdi
     147:	0f 84 a2 00 00 00    	je     1ef <create_dir+0xaf>
     14d:	41 56                	push   %r14
     14f:	41 55                	push   %r13
     151:	41 54                	push   %r12
     153:	55                   	push   %rbp
     154:	48 89 fd             	mov    %rdi,%rbp
     157:	31 ff                	xor    %edi,%edi
     159:	53                   	push   %rbx
     15a:	e8 00 00 00 00       	callq  15f <create_dir+0x1f>
     15f:	48 89 ef             	mov    %rbp,%rdi
     162:	e8 00 00 00 00       	callq  167 <create_dir+0x27>
     167:	4c 63 f0             	movslq %eax,%r14
     16a:	49 89 c5             	mov    %rax,%r13
     16d:	4c 89 f7             	mov    %r14,%rdi
     170:	e8 00 00 00 00       	callq  175 <create_dir+0x35>
     175:	4c 89 f2             	mov    %r14,%rdx
     178:	48 89 ee             	mov    %rbp,%rsi
     17b:	48 89 c7             	mov    %rax,%rdi
     17e:	49 89 c4             	mov    %rax,%r12
     181:	e8 00 00 00 00       	callq  186 <create_dir+0x46>
     186:	45 85 ed             	test   %r13d,%r13d
     189:	7e 40                	jle    1cb <create_dir+0x8b>
     18b:	41 8d 45 ff          	lea    -0x1(%r13),%eax
     18f:	4c 89 e3             	mov    %r12,%rbx
     192:	49 8d 6c 04 01       	lea    0x1(%r12,%rax,1),%rbp
     197:	eb 10                	jmp    1a9 <create_dir+0x69>
     199:	0f 1f 80 00 00 00 00 	nopl   0x0(%rax)
     1a0:	48 83 c3 01          	add    $0x1,%rbx
     1a4:	48 39 eb             	cmp    %rbp,%rbx
     1a7:	74 22                	je     1cb <create_dir+0x8b>
     1a9:	80 3b 2f             	cmpb   $0x2f,(%rbx)
     1ac:	75 f2                	jne    1a0 <create_dir+0x60>
     1ae:	c6 03 00             	movb   $0x0,(%rbx)
     1b1:	31 f6                	xor    %esi,%esi
     1b3:	4c 89 e7             	mov    %r12,%rdi
     1b6:	e8 00 00 00 00       	callq  1bb <create_dir+0x7b>
     1bb:	85 c0                	test   %eax,%eax
     1bd:	75 21                	jne    1e0 <create_dir+0xa0>
     1bf:	c6 03 2f             	movb   $0x2f,(%rbx)
     1c2:	48 83 c3 01          	add    $0x1,%rbx
     1c6:	48 39 eb             	cmp    %rbp,%rbx
     1c9:	75 de                	jne    1a9 <create_dir+0x69>
     1cb:	4c 89 e7             	mov    %r12,%rdi
     1ce:	e8 00 00 00 00       	callq  1d3 <create_dir+0x93>
     1d3:	5b                   	pop    %rbx
     1d4:	31 c0                	xor    %eax,%eax
     1d6:	5d                   	pop    %rbp
     1d7:	41 5c                	pop    %r12
     1d9:	41 5d                	pop    %r13
     1db:	41 5e                	pop    %r14
     1dd:	c3                   	retq   
     1de:	66 90                	xchg   %ax,%ax
     1e0:	be ff 01 00 00       	mov    $0x1ff,%esi
     1e5:	4c 89 e7             	mov    %r12,%rdi
     1e8:	e8 00 00 00 00       	callq  1ed <create_dir+0xad>
     1ed:	eb d0                	jmp    1bf <create_dir+0x7f>
     1ef:	b8 ff ff ff ff       	mov    $0xffffffff,%eax
     1f4:	c3                   	retq   
     1f5:	66 66 2e 0f 1f 84 00 	data16 nopw %cs:0x0(%rax,%rax,1)
     1fc:	00 00 00 00 

0000000000000200 <create_file>:
     200:	f3 0f 1e fa          	endbr64 
     204:	41 57                	push   %r15
     206:	41 56                	push   %r14
     208:	41 55                	push   %r13
     20a:	41 54                	push   %r12
     20c:	55                   	push   %rbp
     20d:	53                   	push   %rbx
     20e:	48 81 ec 18 01 00 00 	sub    $0x118,%rsp
     215:	64 48 8b 04 25 28 00 	mov    %fs:0x28,%rax
     21c:	00 00 
     21e:	48 89 84 24 08 01 00 	mov    %rax,0x108(%rsp)
     225:	00 
     226:	31 c0                	xor    %eax,%eax
     228:	48 85 f6             	test   %rsi,%rsi
     22b:	0f 84 57 02 00 00    	je     488 <create_file+0x288>
     231:	41 89 fc             	mov    %edi,%r12d
     234:	31 ff                	xor    %edi,%edi
     236:	66 0f ef c0          	pxor   %xmm0,%xmm0
     23a:	48 89 f5             	mov    %rsi,%rbp
     23d:	66 89 bc 24 00 01 00 	mov    %di,0x100(%rsp)
     244:	00 
     245:	48 89 f7             	mov    %rsi,%rdi
     248:	48 8d 9c 24 80 00 00 	lea    0x80(%rsp),%rbx
     24f:	00 
     250:	0f 29 84 24 80 00 00 	movaps %xmm0,0x80(%rsp)
     257:	00 
     258:	0f 29 84 24 90 00 00 	movaps %xmm0,0x90(%rsp)
     25f:	00 
     260:	0f 29 84 24 a0 00 00 	movaps %xmm0,0xa0(%rsp)
     267:	00 
     268:	0f 29 84 24 b0 00 00 	movaps %xmm0,0xb0(%rsp)
     26f:	00 
     270:	0f 29 84 24 c0 00 00 	movaps %xmm0,0xc0(%rsp)
     277:	00 
     278:	0f 29 84 24 d0 00 00 	movaps %xmm0,0xd0(%rsp)
     27f:	00 
     280:	0f 29 84 24 e0 00 00 	movaps %xmm0,0xe0(%rsp)
     287:	00 
     288:	0f 29 84 24 f0 00 00 	movaps %xmm0,0xf0(%rsp)
     28f:	00 
     290:	e8 00 00 00 00       	callq  295 <create_file+0x95>
     295:	b9 82 00 00 00       	mov    $0x82,%ecx
     29a:	48 89 ee             	mov    %rbp,%rsi
     29d:	48 89 df             	mov    %rbx,%rdi
     2a0:	48 89 c2             	mov    %rax,%rdx
     2a3:	e8 00 00 00 00       	callq  2a8 <create_file+0xa8>
     2a8:	ba 82 00 00 00       	mov    $0x82,%edx
     2ad:	45 85 e4             	test   %r12d,%r12d
     2b0:	0f 84 ba 01 00 00    	je     470 <create_file+0x270>
     2b6:	48 8d 35 00 00 00 00 	lea    0x0(%rip),%rsi        # 2bd <create_file+0xbd>
     2bd:	48 89 df             	mov    %rbx,%rdi
     2c0:	e8 00 00 00 00       	callq  2c5 <create_file+0xc5>
     2c5:	31 c0                	xor    %eax,%eax
     2c7:	e8 00 00 00 00       	callq  2cc <create_file+0xcc>
     2cc:	48 89 c7             	mov    %rax,%rdi
     2cf:	48 89 c5             	mov    %rax,%rbp
     2d2:	e8 00 00 00 00       	callq  2d7 <create_file+0xd7>
     2d7:	48 89 df             	mov    %rbx,%rdi
     2da:	ba 82 00 00 00       	mov    $0x82,%edx
     2df:	48 89 ee             	mov    %rbp,%rsi
     2e2:	48 01 e8             	add    %rbp,%rax
     2e5:	c7 00 2e 74 78 74    	movl   $0x7478742e,(%rax)
     2eb:	c6 40 04 00          	movb   $0x0,0x4(%rax)
     2ef:	e8 00 00 00 00       	callq  2f4 <create_file+0xf4>
     2f4:	48 89 df             	mov    %rbx,%rdi
     2f7:	e8 00 00 00 00       	callq  2fc <create_file+0xfc>
     2fc:	85 c0                	test   %eax,%eax
     2fe:	0f 85 84 01 00 00    	jne    488 <create_file+0x288>
     304:	31 f6                	xor    %esi,%esi
     306:	48 89 df             	mov    %rbx,%rdi
     309:	e8 00 00 00 00       	callq  30e <create_file+0x10e>
     30e:	85 c0                	test   %eax,%eax
     310:	0f 84 7a 01 00 00    	je     490 <create_file+0x290>
     316:	e8 00 00 00 00       	callq  31b <create_file+0x11b>
     31b:	48 8d 6c 24 40       	lea    0x40(%rsp),%rbp
     320:	31 f6                	xor    %esi,%esi
     322:	4c 8d 7c 24 30       	lea    0x30(%rsp),%r15
     327:	48 89 ef             	mov    %rbp,%rdi
     32a:	41 89 c4             	mov    %eax,%r12d
     32d:	4c 8d 74 24 28       	lea    0x28(%rsp),%r14
     332:	e8 00 00 00 00       	callq  337 <create_file+0x137>
     337:	66 0f ef c9          	pxor   %xmm1,%xmm1
     33b:	66 0f ef c0          	pxor   %xmm0,%xmm0
     33f:	31 f6                	xor    %esi,%esi
     341:	f2 48 0f 2a 4c 24 40 	cvtsi2sdq 0x40(%rsp),%xmm1
     348:	4c 89 ff             	mov    %r15,%rdi
     34b:	4c 8d 2d 00 00 00 00 	lea    0x0(%rip),%r13        # 352 <create_file+0x152>
     352:	f2 48 0f 2a 44 24 48 	cvtsi2sdq 0x48(%rsp),%xmm0
     359:	f2 0f 5e 05 00 00 00 	divsd  0x0(%rip),%xmm0        # 361 <create_file+0x161>
     360:	00 
     361:	f2 0f 58 c1          	addsd  %xmm1,%xmm0
     365:	f2 0f 11 44 24 08    	movsd  %xmm0,0x8(%rsp)
     36b:	e8 00 00 00 00       	callq  370 <create_file+0x170>
     370:	48 8b 44 24 30       	mov    0x30(%rsp),%rax
     375:	48 89 ee             	mov    %rbp,%rsi
     378:	4c 89 f7             	mov    %r14,%rdi
     37b:	48 89 44 24 28       	mov    %rax,0x28(%rsp)
     380:	e8 00 00 00 00       	callq  385 <create_file+0x185>
     385:	48 83 ec 08          	sub    $0x8,%rsp
     389:	b9 14 00 00 00       	mov    $0x14,%ecx
     38e:	4c 8d 05 00 00 00 00 	lea    0x0(%rip),%r8        # 395 <create_file+0x195>
     395:	8b 44 24 48          	mov    0x48(%rsp),%eax
     399:	ba 01 00 00 00       	mov    $0x1,%edx
     39e:	be 14 00 00 00       	mov    $0x14,%esi
     3a3:	48 8d 3d 00 00 00 00 	lea    0x0(%rip),%rdi        # 3aa <create_file+0x1aa>
     3aa:	50                   	push   %rax
     3ab:	8b 44 24 54          	mov    0x54(%rsp),%eax
     3af:	50                   	push   %rax
     3b0:	8b 44 24 60          	mov    0x60(%rsp),%eax
     3b4:	50                   	push   %rax
     3b5:	8b 44 24 6c          	mov    0x6c(%rsp),%eax
     3b9:	50                   	push   %rax
     3ba:	8b 44 24 78          	mov    0x78(%rsp),%eax
     3be:	83 c0 01             	add    $0x1,%eax
     3c1:	50                   	push   %rax
     3c2:	8b 84 24 84 00 00 00 	mov    0x84(%rsp),%eax
     3c9:	44 8d 88 6c 07 00 00 	lea    0x76c(%rax),%r9d
     3d0:	31 c0                	xor    %eax,%eax
     3d2:	e8 00 00 00 00       	callq  3d7 <create_file+0x1d7>
     3d7:	48 83 c4 30          	add    $0x30,%rsp
     3db:	45 89 e1             	mov    %r12d,%r9d
     3de:	48 8d 0d 00 00 00 00 	lea    0x0(%rip),%rcx        # 3e5 <create_file+0x1e5>
     3e5:	53                   	push   %rbx
     3e6:	41 b8 a5 00 00 00    	mov    $0xa5,%r8d
     3ec:	48 8d 15 00 00 00 00 	lea    0x0(%rip),%rdx        # 3f3 <create_file+0x1f3>
     3f3:	48 8d 35 00 00 00 00 	lea    0x0(%rip),%rsi        # 3fa <create_file+0x1fa>
     3fa:	41 55                	push   %r13
     3fc:	f2 0f 10 44 24 18    	movsd  0x18(%rsp),%xmm0
     402:	bf 01 00 00 00       	mov    $0x1,%edi
     407:	b8 01 00 00 00       	mov    $0x1,%eax
     40c:	e8 00 00 00 00       	callq  411 <create_file+0x211>
     411:	48 8b 05 00 00 00 00 	mov    0x0(%rip),%rax        # 418 <create_file+0x218>
     418:	48 8b 38             	mov    (%rax),%rdi
     41b:	e8 00 00 00 00       	callq  420 <create_file+0x220>
     420:	48 8d 35 00 00 00 00 	lea    0x0(%rip),%rsi        # 427 <create_file+0x227>
     427:	48 89 df             	mov    %rbx,%rdi
     42a:	e8 00 00 00 00       	callq  42f <create_file+0x22f>
     42f:	59                   	pop    %rcx
     430:	5e                   	pop    %rsi
     431:	49 89 c4             	mov    %rax,%r12
     434:	48 85 c0             	test   %rax,%rax
     437:	0f 84 ab 02 00 00    	je     6e8 <create_file+0x4e8>
     43d:	48 8b 84 24 08 01 00 	mov    0x108(%rsp),%rax
     444:	00 
     445:	64 48 33 04 25 28 00 	xor    %fs:0x28,%rax
     44c:	00 00 
     44e:	0f 85 72 03 00 00    	jne    7c6 <create_file+0x5c6>
     454:	48 81 c4 18 01 00 00 	add    $0x118,%rsp
     45b:	4c 89 e0             	mov    %r12,%rax
     45e:	5b                   	pop    %rbx
     45f:	5d                   	pop    %rbp
     460:	41 5c                	pop    %r12
     462:	41 5d                	pop    %r13
     464:	41 5e                	pop    %r14
     466:	41 5f                	pop    %r15
     468:	c3                   	retq   
     469:	0f 1f 80 00 00 00 00 	nopl   0x0(%rax)
     470:	48 8d 35 00 00 00 00 	lea    0x0(%rip),%rsi        # 477 <create_file+0x277>
     477:	48 89 df             	mov    %rbx,%rdi
     47a:	e8 00 00 00 00       	callq  47f <create_file+0x27f>
     47f:	e9 41 fe ff ff       	jmpq   2c5 <create_file+0xc5>
     484:	0f 1f 40 00          	nopl   0x0(%rax)
     488:	45 31 e4             	xor    %r12d,%r12d
     48b:	eb b0                	jmp    43d <create_file+0x23d>
     48d:	0f 1f 00             	nopl   (%rax)
     490:	e8 00 00 00 00       	callq  495 <create_file+0x295>
     495:	48 8d 6c 24 40       	lea    0x40(%rsp),%rbp
     49a:	31 f6                	xor    %esi,%esi
     49c:	4c 8d 7c 24 30       	lea    0x30(%rsp),%r15
     4a1:	48 89 ef             	mov    %rbp,%rdi
     4a4:	41 89 c4             	mov    %eax,%r12d
     4a7:	4c 8d 74 24 28       	lea    0x28(%rsp),%r14
     4ac:	e8 00 00 00 00       	callq  4b1 <create_file+0x2b1>
     4b1:	66 0f ef c9          	pxor   %xmm1,%xmm1
     4b5:	66 0f ef c0          	pxor   %xmm0,%xmm0
     4b9:	31 f6                	xor    %esi,%esi
     4bb:	f2 48 0f 2a 4c 24 40 	cvtsi2sdq 0x40(%rsp),%xmm1
     4c2:	4c 89 ff             	mov    %r15,%rdi
     4c5:	4c 8d 2d 00 00 00 00 	lea    0x0(%rip),%r13        # 4cc <create_file+0x2cc>
     4cc:	f2 48 0f 2a 44 24 48 	cvtsi2sdq 0x48(%rsp),%xmm0
     4d3:	f2 0f 5e 05 00 00 00 	divsd  0x0(%rip),%xmm0        # 4db <create_file+0x2db>
     4da:	00 
     4db:	f2 0f 58 c1          	addsd  %xmm1,%xmm0
     4df:	f2 0f 11 44 24 08    	movsd  %xmm0,0x8(%rsp)
     4e5:	e8 00 00 00 00       	callq  4ea <create_file+0x2ea>
     4ea:	48 8b 44 24 30       	mov    0x30(%rsp),%rax
     4ef:	48 89 ee             	mov    %rbp,%rsi
     4f2:	4c 89 f7             	mov    %r14,%rdi
     4f5:	48 89 44 24 28       	mov    %rax,0x28(%rsp)
     4fa:	e8 00 00 00 00       	callq  4ff <create_file+0x2ff>
     4ff:	48 83 ec 08          	sub    $0x8,%rsp
     503:	b9 14 00 00 00       	mov    $0x14,%ecx
     508:	4c 8d 05 00 00 00 00 	lea    0x0(%rip),%r8        # 50f <create_file+0x30f>
     50f:	8b 44 24 48          	mov    0x48(%rsp),%eax
     513:	ba 01 00 00 00       	mov    $0x1,%edx
     518:	be 14 00 00 00       	mov    $0x14,%esi
     51d:	48 8d 3d 00 00 00 00 	lea    0x0(%rip),%rdi        # 524 <create_file+0x324>
     524:	50                   	push   %rax
     525:	8b 44 24 54          	mov    0x54(%rsp),%eax
     529:	50                   	push   %rax
     52a:	8b 44 24 60          	mov    0x60(%rsp),%eax
     52e:	50                   	push   %rax
     52f:	8b 44 24 6c          	mov    0x6c(%rsp),%eax
     533:	50                   	push   %rax
     534:	8b 44 24 78          	mov    0x78(%rsp),%eax
     538:	83 c0 01             	add    $0x1,%eax
     53b:	50                   	push   %rax
     53c:	8b 84 24 84 00 00 00 	mov    0x84(%rsp),%eax
     543:	44 8d 88 6c 07 00 00 	lea    0x76c(%rax),%r9d
     54a:	31 c0                	xor    %eax,%eax
     54c:	e8 00 00 00 00       	callq  551 <create_file+0x351>
     551:	48 83 c4 30          	add    $0x30,%rsp
     555:	45 89 e1             	mov    %r12d,%r9d
     558:	48 8d 15 00 00 00 00 	lea    0x0(%rip),%rdx        # 55f <create_file+0x35f>
     55f:	53                   	push   %rbx
     560:	41 b8 ae 00 00 00    	mov    $0xae,%r8d
     566:	48 8d 0d 00 00 00 00 	lea    0x0(%rip),%rcx        # 56d <create_file+0x36d>
     56d:	48 8d 35 00 00 00 00 	lea    0x0(%rip),%rsi        # 574 <create_file+0x374>
     574:	41 55                	push   %r13
     576:	f2 0f 10 44 24 18    	movsd  0x18(%rsp),%xmm0
     57c:	bf 01 00 00 00       	mov    $0x1,%edi
     581:	b8 01 00 00 00       	mov    $0x1,%eax
     586:	e8 00 00 00 00       	callq  58b <create_file+0x38b>
     58b:	48 8b 05 00 00 00 00 	mov    0x0(%rip),%rax        # 592 <create_file+0x392>
     592:	48 8b 38             	mov    (%rax),%rdi
     595:	e8 00 00 00 00       	callq  59a <create_file+0x39a>
     59a:	48 8d 35 00 00 00 00 	lea    0x0(%rip),%rsi        # 5a1 <create_file+0x3a1>
     5a1:	48 89 df             	mov    %rbx,%rdi
     5a4:	e8 00 00 00 00       	callq  5a9 <create_file+0x3a9>
     5a9:	49 89 c4             	mov    %rax,%r12
     5ac:	58                   	pop    %rax
     5ad:	5a                   	pop    %rdx
     5ae:	4d 85 e4             	test   %r12,%r12
     5b1:	0f 85 86 fe ff ff    	jne    43d <create_file+0x23d>
     5b7:	e8 00 00 00 00       	callq  5bc <create_file+0x3bc>
     5bc:	8b 38                	mov    (%rax),%edi
     5be:	e8 00 00 00 00       	callq  5c3 <create_file+0x3c3>
     5c3:	48 89 44 24 18       	mov    %rax,0x18(%rsp)
     5c8:	e8 00 00 00 00       	callq  5cd <create_file+0x3cd>
     5cd:	31 f6                	xor    %esi,%esi
     5cf:	48 89 ef             	mov    %rbp,%rdi
     5d2:	89 44 24 14          	mov    %eax,0x14(%rsp)
     5d6:	e8 00 00 00 00       	callq  5db <create_file+0x3db>
     5db:	66 0f ef c9          	pxor   %xmm1,%xmm1
     5df:	66 0f ef c0          	pxor   %xmm0,%xmm0
     5e3:	31 f6                	xor    %esi,%esi
     5e5:	f2 48 0f 2a 4c 24 40 	cvtsi2sdq 0x40(%rsp),%xmm1
     5ec:	4c 89 ff             	mov    %r15,%rdi
     5ef:	f2 48 0f 2a 44 24 48 	cvtsi2sdq 0x48(%rsp),%xmm0
     5f6:	f2 0f 5e 05 00 00 00 	divsd  0x0(%rip),%xmm0        # 5fe <create_file+0x3fe>
     5fd:	00 
     5fe:	f2 0f 58 c1          	addsd  %xmm1,%xmm0
     602:	f2 0f 11 44 24 08    	movsd  %xmm0,0x8(%rsp)
     608:	e8 00 00 00 00       	callq  60d <create_file+0x40d>
     60d:	48 8b 44 24 30       	mov    0x30(%rsp),%rax
     612:	48 89 ee             	mov    %rbp,%rsi
     615:	4c 89 f7             	mov    %r14,%rdi
     618:	48 89 44 24 28       	mov    %rax,0x28(%rsp)
     61d:	e8 00 00 00 00       	callq  622 <create_file+0x422>
     622:	48 83 ec 08          	sub    $0x8,%rsp
     626:	b9 14 00 00 00       	mov    $0x14,%ecx
     62b:	4c 8d 05 00 00 00 00 	lea    0x0(%rip),%r8        # 632 <create_file+0x432>
     632:	8b 44 24 48          	mov    0x48(%rsp),%eax
     636:	ba 01 00 00 00       	mov    $0x1,%edx
     63b:	be 14 00 00 00       	mov    $0x14,%esi
     640:	48 8d 3d 00 00 00 00 	lea    0x0(%rip),%rdi        # 647 <create_file+0x447>
     647:	50                   	push   %rax
     648:	8b 44 24 54          	mov    0x54(%rsp),%eax
     64c:	50                   	push   %rax
     64d:	8b 44 24 60          	mov    0x60(%rsp),%eax
     651:	50                   	push   %rax
     652:	8b 44 24 6c          	mov    0x6c(%rsp),%eax
     656:	50                   	push   %rax
     657:	8b 44 24 78          	mov    0x78(%rsp),%eax
     65b:	83 c0 01             	add    $0x1,%eax
     65e:	50                   	push   %rax
     65f:	8b 84 24 84 00 00 00 	mov    0x84(%rsp),%eax
     666:	44 8d 88 6c 07 00 00 	lea    0x76c(%rax),%r9d
     66d:	31 c0                	xor    %eax,%eax
     66f:	e8 00 00 00 00       	callq  674 <create_file+0x474>
     674:	4c 8b 5c 24 48       	mov    0x48(%rsp),%r11
     679:	48 83 c4 28          	add    $0x28,%rsp
     67d:	41 b8 b1 00 00 00    	mov    $0xb1,%r8d
     683:	41 53                	push   %r11
     685:	53                   	push   %rbx
     686:	41 55                	push   %r13
     688:	44 8b 54 24 34       	mov    0x34(%rsp),%r10d
     68d:	45 89 d1             	mov    %r10d,%r9d
     690:	f2 0f 10 44 24 28    	movsd  0x28(%rsp),%xmm0
     696:	48 8d 0d 00 00 00 00 	lea    0x0(%rip),%rcx        # 69d <create_file+0x49d>
     69d:	48 8d 15 00 00 00 00 	lea    0x0(%rip),%rdx        # 6a4 <create_file+0x4a4>
     6a4:	bf 01 00 00 00       	mov    $0x1,%edi
     6a9:	48 8d 35 00 00 00 00 	lea    0x0(%rip),%rsi        # 6b0 <create_file+0x4b0>
     6b0:	b8 01 00 00 00       	mov    $0x1,%eax
     6b5:	e8 00 00 00 00       	callq  6ba <create_file+0x4ba>
     6ba:	48 8b 05 00 00 00 00 	mov    0x0(%rip),%rax        # 6c1 <create_file+0x4c1>
     6c1:	48 83 c4 20          	add    $0x20,%rsp
     6c5:	48 8b 38             	mov    (%rax),%rdi
     6c8:	e8 00 00 00 00       	callq  6cd <create_file+0x4cd>
     6cd:	48 8b 05 00 00 00 00 	mov    0x0(%rip),%rax        # 6d4 <create_file+0x4d4>
     6d4:	48 8b 38             	mov    (%rax),%rdi
     6d7:	e8 00 00 00 00       	callq  6dc <create_file+0x4dc>
     6dc:	e9 5c fd ff ff       	jmpq   43d <create_file+0x23d>
     6e1:	0f 1f 80 00 00 00 00 	nopl   0x0(%rax)
     6e8:	e8 00 00 00 00       	callq  6ed <create_file+0x4ed>
     6ed:	8b 38                	mov    (%rax),%edi
     6ef:	e8 00 00 00 00       	callq  6f4 <create_file+0x4f4>
     6f4:	48 89 44 24 18       	mov    %rax,0x18(%rsp)
     6f9:	e8 00 00 00 00       	callq  6fe <create_file+0x4fe>
     6fe:	31 f6                	xor    %esi,%esi
     700:	48 89 ef             	mov    %rbp,%rdi
     703:	89 44 24 14          	mov    %eax,0x14(%rsp)
     707:	e8 00 00 00 00       	callq  70c <create_file+0x50c>
     70c:	66 0f ef c9          	pxor   %xmm1,%xmm1
     710:	66 0f ef c0          	pxor   %xmm0,%xmm0
     714:	31 f6                	xor    %esi,%esi
     716:	f2 48 0f 2a 4c 24 40 	cvtsi2sdq 0x40(%rsp),%xmm1
     71d:	4c 89 ff             	mov    %r15,%rdi
     720:	f2 48 0f 2a 44 24 48 	cvtsi2sdq 0x48(%rsp),%xmm0
     727:	f2 0f 5e 05 00 00 00 	divsd  0x0(%rip),%xmm0        # 72f <create_file+0x52f>
     72e:	00 
     72f:	f2 0f 58 c1          	addsd  %xmm1,%xmm0
     733:	f2 0f 11 44 24 08    	movsd  %xmm0,0x8(%rsp)
     739:	e8 00 00 00 00       	callq  73e <create_file+0x53e>
     73e:	48 8b 44 24 30       	mov    0x30(%rsp),%rax
     743:	48 89 ee             	mov    %rbp,%rsi
     746:	4c 89 f7             	mov    %r14,%rdi
     749:	48 89 44 24 28       	mov    %rax,0x28(%rsp)
     74e:	e8 00 00 00 00       	callq  753 <create_file+0x553>
     753:	48 83 ec 08          	sub    $0x8,%rsp
     757:	b9 14 00 00 00       	mov    $0x14,%ecx
     75c:	4c 8d 05 00 00 00 00 	lea    0x0(%rip),%r8        # 763 <create_file+0x563>
     763:	8b 44 24 48          	mov    0x48(%rsp),%eax
     767:	ba 01 00 00 00       	mov    $0x1,%edx
     76c:	be 14 00 00 00       	mov    $0x14,%esi
     771:	48 8d 3d 00 00 00 00 	lea    0x0(%rip),%rdi        # 778 <create_file+0x578>
     778:	50                   	push   %rax
     779:	8b 44 24 54          	mov    0x54(%rsp),%eax
     77d:	50                   	push   %rax
     77e:	8b 44 24 60          	mov    0x60(%rsp),%eax
     782:	50                   	push   %rax
     783:	8b 44 24 6c          	mov    0x6c(%rsp),%eax
     787:	50                   	push   %rax
     788:	8b 44 24 78          	mov    0x78(%rsp),%eax
     78c:	83 c0 01             	add    $0x1,%eax
     78f:	50                   	push   %rax
     790:	8b 84 24 84 00 00 00 	mov    0x84(%rsp),%eax
     797:	44 8d 88 6c 07 00 00 	lea    0x76c(%rax),%r9d
     79e:	31 c0                	xor    %eax,%eax
     7a0:	e8 00 00 00 00       	callq  7a5 <create_file+0x5a5>
     7a5:	4c 8b 5c 24 48       	mov    0x48(%rsp),%r11
     7aa:	48 83 c4 28          	add    $0x28,%rsp
     7ae:	41 b8 a9 00 00 00    	mov    $0xa9,%r8d
     7b4:	41 53                	push   %r11
     7b6:	53                   	push   %rbx
     7b7:	41 55                	push   %r13
     7b9:	44 8b 54 24 34       	mov    0x34(%rsp),%r10d
     7be:	45 89 d1             	mov    %r10d,%r9d
     7c1:	e9 ca fe ff ff       	jmpq   690 <create_file+0x490>
     7c6:	e8 00 00 00 00       	callq  7cb <create_file+0x5cb>
     7cb:	0f 1f 44 00 00       	nopl   0x0(%rax,%rax,1)

00000000000007d0 <write_log>:
     7d0:	f3 0f 1e fa          	endbr64 
     7d4:	41 57                	push   %r15
     7d6:	41 56                	push   %r14
     7d8:	41 55                	push   %r13
     7da:	49 89 d5             	mov    %rdx,%r13
     7dd:	41 54                	push   %r12
     7df:	55                   	push   %rbp
     7e0:	53                   	push   %rbx
     7e1:	48 81 ec b8 00 00 00 	sub    $0xb8,%rsp
     7e8:	64 48 8b 04 25 28 00 	mov    %fs:0x28,%rax
     7ef:	00 00 
     7f1:	48 89 84 24 a8 00 00 	mov    %rax,0xa8(%rsp)
     7f8:	00 
     7f9:	31 c0                	xor    %eax,%eax
     7fb:	48 85 d2             	test   %rdx,%rdx
     7fe:	0f 94 c2             	sete   %dl
     801:	4d 85 c0             	test   %r8,%r8
     804:	0f 94 c0             	sete   %al
     807:	08 c2                	or     %al,%dl
     809:	0f 85 e9 02 00 00    	jne    af8 <write_log+0x328>
     80f:	48 89 f3             	mov    %rsi,%rbx
     812:	48 85 f6             	test   %rsi,%rsi
     815:	0f 84 dd 02 00 00    	je     af8 <write_log+0x328>
     81b:	49 89 fe             	mov    %rdi,%r14
     81e:	41 89 cf             	mov    %ecx,%r15d
     821:	4d 89 c4             	mov    %r8,%r12
     824:	48 85 ff             	test   %rdi,%rdi
     827:	0f 84 03 03 00 00    	je     b30 <write_log+0x360>
     82d:	8b 87 88 00 00 00    	mov    0x88(%rdi),%eax
     833:	85 c0                	test   %eax,%eax
     835:	0f 84 ed 02 00 00    	je     b28 <write_log+0x358>
     83b:	31 ed                	xor    %ebp,%ebp
     83d:	83 f8 02             	cmp    $0x2,%eax
     840:	75 03                	jne    845 <write_log+0x75>
     842:	48 8b 2f             	mov    (%rdi),%rbp
     845:	e8 00 00 00 00       	callq  84a <write_log+0x7a>
     84a:	4c 8d 44 24 40       	lea    0x40(%rsp),%r8
     84f:	31 f6                	xor    %esi,%esi
     851:	4c 89 c7             	mov    %r8,%rdi
     854:	4c 89 44 24 10       	mov    %r8,0x10(%rsp)
     859:	89 44 24 1c          	mov    %eax,0x1c(%rsp)
     85d:	e8 00 00 00 00       	callq  862 <write_log+0x92>
     862:	66 0f ef c9          	pxor   %xmm1,%xmm1
     866:	66 0f ef c0          	pxor   %xmm0,%xmm0
     86a:	31 f6                	xor    %esi,%esi
     86c:	f2 48 0f 2a 4c 24 40 	cvtsi2sdq 0x40(%rsp),%xmm1
     873:	48 8d 7c 24 30       	lea    0x30(%rsp),%rdi
     878:	f2 48 0f 2a 44 24 48 	cvtsi2sdq 0x48(%rsp),%xmm0
     87f:	f2 0f 5e 05 00 00 00 	divsd  0x0(%rip),%xmm0        # 887 <write_log+0xb7>
     886:	00 
     887:	f2 0f 58 c1          	addsd  %xmm1,%xmm0
     88b:	f2 0f 11 44 24 08    	movsd  %xmm0,0x8(%rsp)
     891:	e8 00 00 00 00       	callq  896 <write_log+0xc6>
     896:	4c 8b 44 24 10       	mov    0x10(%rsp),%r8
     89b:	48 8b 44 24 30       	mov    0x30(%rsp),%rax
     8a0:	48 8d 7c 24 28       	lea    0x28(%rsp),%rdi
     8a5:	4c 89 c6             	mov    %r8,%rsi
     8a8:	48 89 44 24 28       	mov    %rax,0x28(%rsp)
     8ad:	e8 00 00 00 00       	callq  8b2 <write_log+0xe2>
     8b2:	48 83 ec 08          	sub    $0x8,%rsp
     8b6:	b9 14 00 00 00       	mov    $0x14,%ecx
     8bb:	4c 8d 05 00 00 00 00 	lea    0x0(%rip),%r8        # 8c2 <write_log+0xf2>
     8c2:	8b 44 24 48          	mov    0x48(%rsp),%eax
     8c6:	ba 01 00 00 00       	mov    $0x1,%edx
     8cb:	be 14 00 00 00       	mov    $0x14,%esi
     8d0:	48 8d 3d 00 00 00 00 	lea    0x0(%rip),%rdi        # 8d7 <write_log+0x107>
     8d7:	50                   	push   %rax
     8d8:	8b 44 24 54          	mov    0x54(%rsp),%eax
     8dc:	50                   	push   %rax
     8dd:	8b 44 24 60          	mov    0x60(%rsp),%eax
     8e1:	50                   	push   %rax
     8e2:	8b 44 24 6c          	mov    0x6c(%rsp),%eax
     8e6:	50                   	push   %rax
     8e7:	8b 44 24 78          	mov    0x78(%rsp),%eax
     8eb:	83 c0 01             	add    $0x1,%eax
     8ee:	50                   	push   %rax
     8ef:	8b 84 24 84 00 00 00 	mov    0x84(%rsp),%eax
     8f6:	44 8d 88 6c 07 00 00 	lea    0x76c(%rax),%r9d
     8fd:	31 c0                	xor    %eax,%eax
     8ff:	e8 00 00 00 00       	callq  904 <write_log+0x134>
     904:	48 83 c4 30          	add    $0x30,%rsp
     908:	45 89 f8             	mov    %r15d,%r8d
     90b:	4c 89 e9             	mov    %r13,%rcx
     90e:	53                   	push   %rbx
     90f:	bf 01 00 00 00       	mov    $0x1,%edi
     914:	b8 01 00 00 00       	mov    $0x1,%eax
     919:	48 8d 15 00 00 00 00 	lea    0x0(%rip),%rdx        # 920 <write_log+0x150>
     920:	41 54                	push   %r12
     922:	44 8b 54 24 2c       	mov    0x2c(%rsp),%r10d
     927:	48 8d 35 00 00 00 00 	lea    0x0(%rip),%rsi        # 92e <write_log+0x15e>
     92e:	f2 0f 10 44 24 18    	movsd  0x18(%rsp),%xmm0
     934:	45 89 d1             	mov    %r10d,%r9d
     937:	e8 00 00 00 00       	callq  93c <write_log+0x16c>
     93c:	48 8b 05 00 00 00 00 	mov    0x0(%rip),%rax        # 943 <write_log+0x173>
     943:	48 8b 38             	mov    (%rax),%rdi
     946:	e8 00 00 00 00       	callq  94b <write_log+0x17b>
     94b:	5f                   	pop    %rdi
     94c:	41 58                	pop    %r8
     94e:	48 85 ed             	test   %rbp,%rbp
     951:	0f 84 a1 01 00 00    	je     af8 <write_log+0x328>
     957:	48 89 ef             	mov    %rbp,%rdi
     95a:	e8 00 00 00 00       	callq  95f <write_log+0x18f>
     95f:	48 3d ff ff 9f 00    	cmp    $0x9fffff,%rax
     965:	7e 2b                	jle    992 <write_log+0x1c2>
     967:	48 89 ef             	mov    %rbp,%rdi
     96a:	e8 00 00 00 00       	callq  96f <write_log+0x19f>
     96f:	4d 85 f6             	test   %r14,%r14
     972:	0f 84 e8 01 00 00    	je     b60 <write_log+0x390>
     978:	49 8d 76 08          	lea    0x8(%r14),%rsi
     97c:	31 ff                	xor    %edi,%edi
     97e:	e8 00 00 00 00       	callq  983 <write_log+0x1b3>
     983:	49 89 06             	mov    %rax,(%r14)
     986:	48 89 c5             	mov    %rax,%rbp
     989:	48 85 c0             	test   %rax,%rax
     98c:	0f 84 f8 02 00 00    	je     c8a <write_log+0x4ba>
     992:	31 c0                	xor    %eax,%eax
     994:	e8 00 00 00 00       	callq  999 <write_log+0x1c9>
     999:	48 89 c7             	mov    %rax,%rdi
     99c:	49 89 c6             	mov    %rax,%r14
     99f:	e8 00 00 00 00       	callq  9a4 <write_log+0x1d4>
     9a4:	4c 89 f7             	mov    %r14,%rdi
     9a7:	48 89 e9             	mov    %rbp,%rcx
     9aa:	be 01 00 00 00       	mov    $0x1,%esi
     9af:	48 89 c2             	mov    %rax,%rdx
     9b2:	4c 8d b4 24 80 00 00 	lea    0x80(%rsp),%r14
     9b9:	00 
     9ba:	e8 00 00 00 00       	callq  9bf <write_log+0x1ef>
     9bf:	ba 3a 00 00 00       	mov    $0x3a,%edx
     9c4:	48 89 e9             	mov    %rbp,%rcx
     9c7:	4c 89 f7             	mov    %r14,%rdi
     9ca:	be 01 00 00 00       	mov    $0x1,%esi
     9cf:	66 89 94 24 80 00 00 	mov    %dx,0x80(%rsp)
     9d6:	00 
     9d7:	ba 01 00 00 00       	mov    $0x1,%edx
     9dc:	e8 00 00 00 00       	callq  9e1 <write_log+0x211>
     9e1:	4c 89 ef             	mov    %r13,%rdi
     9e4:	e8 00 00 00 00       	callq  9e9 <write_log+0x219>
     9e9:	48 89 e9             	mov    %rbp,%rcx
     9ec:	be 01 00 00 00       	mov    $0x1,%esi
     9f1:	4c 89 ef             	mov    %r13,%rdi
     9f4:	48 89 c2             	mov    %rax,%rdx
     9f7:	e8 00 00 00 00       	callq  9fc <write_log+0x22c>
     9fc:	ba 20 00 00 00       	mov    $0x20,%edx
     a01:	45 89 f8             	mov    %r15d,%r8d
     a04:	4c 89 f7             	mov    %r14,%rdi
     a07:	48 8d 0d 00 00 00 00 	lea    0x0(%rip),%rcx        # a0e <write_log+0x23e>
     a0e:	be 01 00 00 00       	mov    $0x1,%esi
     a13:	31 c0                	xor    %eax,%eax
     a15:	e8 00 00 00 00       	callq  a1a <write_log+0x24a>
     a1a:	4c 89 f2             	mov    %r14,%rdx
     a1d:	8b 0a                	mov    (%rdx),%ecx
     a1f:	48 83 c2 04          	add    $0x4,%rdx
     a23:	8d 81 ff fe fe fe    	lea    -0x1010101(%rcx),%eax
     a29:	f7 d1                	not    %ecx
     a2b:	21 c8                	and    %ecx,%eax
     a2d:	25 80 80 80 80       	and    $0x80808080,%eax
     a32:	74 e9                	je     a1d <write_log+0x24d>
     a34:	89 c1                	mov    %eax,%ecx
     a36:	4c 89 f7             	mov    %r14,%rdi
     a39:	c1 e9 10             	shr    $0x10,%ecx
     a3c:	a9 80 80 00 00       	test   $0x8080,%eax
     a41:	0f 44 c1             	cmove  %ecx,%eax
     a44:	48 8d 4a 02          	lea    0x2(%rdx),%rcx
     a48:	48 0f 44 d1          	cmove  %rcx,%rdx
     a4c:	48 89 e9             	mov    %rbp,%rcx
     a4f:	89 c6                	mov    %eax,%esi
     a51:	40 00 c6             	add    %al,%sil
     a54:	be 01 00 00 00       	mov    $0x1,%esi
     a59:	48 83 da 03          	sbb    $0x3,%rdx
     a5d:	4c 29 f2             	sub    %r14,%rdx
     a60:	e8 00 00 00 00       	callq  a65 <write_log+0x295>
     a65:	4c 89 e7             	mov    %r12,%rdi
     a68:	e8 00 00 00 00       	callq  a6d <write_log+0x29d>
     a6d:	48 89 e9             	mov    %rbp,%rcx
     a70:	be 01 00 00 00       	mov    $0x1,%esi
     a75:	4c 89 e7             	mov    %r12,%rdi
     a78:	48 89 c2             	mov    %rax,%rdx
     a7b:	e8 00 00 00 00       	callq  a80 <write_log+0x2b0>
     a80:	48 89 e9             	mov    %rbp,%rcx
     a83:	ba 05 00 00 00       	mov    $0x5,%edx
     a88:	4c 89 f7             	mov    %r14,%rdi
     a8b:	be 01 00 00 00       	mov    $0x1,%esi
     a90:	b8 2d 00 00 00       	mov    $0x2d,%eax
     a95:	c7 84 24 80 00 00 00 	movl   $0x2d2d2928,0x80(%rsp)
     a9c:	28 29 2d 2d 
     aa0:	66 89 84 24 84 00 00 	mov    %ax,0x84(%rsp)
     aa7:	00 
     aa8:	e8 00 00 00 00       	callq  aad <write_log+0x2dd>
     aad:	48 89 df             	mov    %rbx,%rdi
     ab0:	e8 00 00 00 00       	callq  ab5 <write_log+0x2e5>
     ab5:	48 89 e9             	mov    %rbp,%rcx
     ab8:	be 01 00 00 00       	mov    $0x1,%esi
     abd:	48 89 df             	mov    %rbx,%rdi
     ac0:	48 89 c2             	mov    %rax,%rdx
     ac3:	e8 00 00 00 00       	callq  ac8 <write_log+0x2f8>
     ac8:	48 89 df             	mov    %rbx,%rdi
     acb:	e8 00 00 00 00       	callq  ad0 <write_log+0x300>
     ad0:	80 7c 03 ff 0a       	cmpb   $0xa,-0x1(%rbx,%rax,1)
     ad5:	74 19                	je     af0 <write_log+0x320>
     ad7:	48 89 e9             	mov    %rbp,%rcx
     ada:	ba 01 00 00 00       	mov    $0x1,%edx
     adf:	be 01 00 00 00       	mov    $0x1,%esi
     ae4:	48 8d 3d 00 00 00 00 	lea    0x0(%rip),%rdi        # aeb <write_log+0x31b>
     aeb:	e8 00 00 00 00       	callq  af0 <write_log+0x320>
     af0:	48 89 ef             	mov    %rbp,%rdi
     af3:	e8 00 00 00 00       	callq  af8 <write_log+0x328>
     af8:	48 8b 84 24 a8 00 00 	mov    0xa8(%rsp),%rax
     aff:	00 
     b00:	64 48 33 04 25 28 00 	xor    %fs:0x28,%rax
     b07:	00 00 
     b09:	0f 85 48 02 00 00    	jne    d57 <write_log+0x587>
     b0f:	48 81 c4 b8 00 00 00 	add    $0xb8,%rsp
     b16:	5b                   	pop    %rbx
     b17:	5d                   	pop    %rbp
     b18:	41 5c                	pop    %r12
     b1a:	41 5d                	pop    %r13
     b1c:	41 5e                	pop    %r14
     b1e:	41 5f                	pop    %r15
     b20:	c3                   	retq   
     b21:	0f 1f 80 00 00 00 00 	nopl   0x0(%rax)
     b28:	48 8b 2f             	mov    (%rdi),%rbp
     b2b:	e9 1e fe ff ff       	jmpq   94e <write_log+0x17e>
     b30:	8b 05 00 00 00 00    	mov    0x0(%rip),%eax        # b36 <write_log+0x366>
     b36:	48 8b 2d 00 00 00 00 	mov    0x0(%rip),%rbp        # b3d <write_log+0x36d>
     b3d:	85 c0                	test   %eax,%eax
     b3f:	0f 84 09 fe ff ff    	je     94e <write_log+0x17e>
     b45:	83 f8 02             	cmp    $0x2,%eax
     b48:	48 89 fd             	mov    %rdi,%rbp
     b4b:	48 0f 44 2d 00 00 00 	cmove  0x0(%rip),%rbp        # b53 <write_log+0x383>
     b52:	00 
     b53:	e9 ed fc ff ff       	jmpq   845 <write_log+0x75>
     b58:	0f 1f 84 00 00 00 00 	nopl   0x0(%rax,%rax,1)
     b5f:	00 
     b60:	be 08 00 00 00       	mov    $0x8,%esi
     b65:	bf 01 00 00 00       	mov    $0x1,%edi
     b6a:	e8 00 00 00 00       	callq  b6f <write_log+0x39f>
     b6f:	48 89 05 00 00 00 00 	mov    %rax,0x0(%rip)        # b76 <write_log+0x3a6>
     b76:	48 89 c5             	mov    %rax,%rbp
     b79:	48 85 c0             	test   %rax,%rax
     b7c:	0f 85 10 fe ff ff    	jne    992 <write_log+0x1c2>
     b82:	e8 00 00 00 00       	callq  b87 <write_log+0x3b7>
     b87:	48 8d 6c 24 40       	lea    0x40(%rsp),%rbp
     b8c:	31 f6                	xor    %esi,%esi
     b8e:	48 89 ef             	mov    %rbp,%rdi
     b91:	89 c3                	mov    %eax,%ebx
     b93:	e8 00 00 00 00       	callq  b98 <write_log+0x3c8>
     b98:	66 0f ef c9          	pxor   %xmm1,%xmm1
     b9c:	66 0f ef c0          	pxor   %xmm0,%xmm0
     ba0:	31 f6                	xor    %esi,%esi
     ba2:	f2 48 0f 2a 4c 24 40 	cvtsi2sdq 0x40(%rsp),%xmm1
     ba9:	48 8d 7c 24 30       	lea    0x30(%rsp),%rdi
     bae:	f2 48 0f 2a 44 24 48 	cvtsi2sdq 0x48(%rsp),%xmm0
     bb5:	f2 0f 5e 05 00 00 00 	divsd  0x0(%rip),%xmm0        # bbd <write_log+0x3ed>
     bbc:	00 
     bbd:	f2 0f 58 c1          	addsd  %xmm1,%xmm0
     bc1:	f2 0f 11 44 24 08    	movsd  %xmm0,0x8(%rsp)
     bc7:	e8 00 00 00 00       	callq  bcc <write_log+0x3fc>
     bcc:	48 8b 44 24 30       	mov    0x30(%rsp),%rax
     bd1:	48 8d 7c 24 28       	lea    0x28(%rsp),%rdi
     bd6:	48 89 ee             	mov    %rbp,%rsi
     bd9:	48 89 44 24 28       	mov    %rax,0x28(%rsp)
     bde:	e8 00 00 00 00       	callq  be3 <write_log+0x413>
     be3:	48 83 ec 08          	sub    $0x8,%rsp
     be7:	b9 14 00 00 00       	mov    $0x14,%ecx
     bec:	4c 8d 05 00 00 00 00 	lea    0x0(%rip),%r8        # bf3 <write_log+0x423>
     bf3:	8b 44 24 48          	mov    0x48(%rsp),%eax
     bf7:	ba 01 00 00 00       	mov    $0x1,%edx
     bfc:	be 14 00 00 00       	mov    $0x14,%esi
     c01:	48 8d 3d 00 00 00 00 	lea    0x0(%rip),%rdi        # c08 <write_log+0x438>
     c08:	50                   	push   %rax
     c09:	8b 44 24 54          	mov    0x54(%rsp),%eax
     c0d:	50                   	push   %rax
     c0e:	8b 44 24 60          	mov    0x60(%rsp),%eax
     c12:	50                   	push   %rax
     c13:	8b 44 24 6c          	mov    0x6c(%rsp),%eax
     c17:	50                   	push   %rax
     c18:	8b 44 24 78          	mov    0x78(%rsp),%eax
     c1c:	83 c0 01             	add    $0x1,%eax
     c1f:	50                   	push   %rax
     c20:	8b 84 24 84 00 00 00 	mov    0x84(%rsp),%eax
     c27:	44 8d 88 6c 07 00 00 	lea    0x76c(%rax),%r9d
     c2e:	31 c0                	xor    %eax,%eax
     c30:	e8 00 00 00 00       	callq  c35 <write_log+0x465>
     c35:	48 83 c4 28          	add    $0x28,%rsp
     c39:	41 89 d9             	mov    %ebx,%r9d
     c3c:	48 8d 05 00 00 00 00 	lea    0x0(%rip),%rax        # c43 <write_log+0x473>
     c43:	50                   	push   %rax
     c44:	41 b8 53 01 00 00    	mov    $0x153,%r8d
     c4a:	f2 0f 10 44 24 18    	movsd  0x18(%rsp),%xmm0
     c50:	48 8d 0d 00 00 00 00 	lea    0x0(%rip),%rcx        # c57 <write_log+0x487>
     c57:	48 8d 35 00 00 00 00 	lea    0x0(%rip),%rsi        # c5e <write_log+0x48e>
     c5e:	bf 01 00 00 00       	mov    $0x1,%edi
     c63:	48 8d 15 00 00 00 00 	lea    0x0(%rip),%rdx        # c6a <write_log+0x49a>
     c6a:	b8 01 00 00 00       	mov    $0x1,%eax
     c6f:	e8 00 00 00 00       	callq  c74 <write_log+0x4a4>
     c74:	48 8b 05 00 00 00 00 	mov    0x0(%rip),%rax        # c7b <write_log+0x4ab>
     c7b:	48 8b 38             	mov    (%rax),%rdi
     c7e:	e8 00 00 00 00       	callq  c83 <write_log+0x4b3>
     c83:	59                   	pop    %rcx
     c84:	5e                   	pop    %rsi
     c85:	e9 6e fe ff ff       	jmpq   af8 <write_log+0x328>
     c8a:	e8 00 00 00 00       	callq  c8f <write_log+0x4bf>
     c8f:	48 8d 6c 24 40       	lea    0x40(%rsp),%rbp
     c94:	31 f6                	xor    %esi,%esi
     c96:	48 89 ef             	mov    %rbp,%rdi
     c99:	89 c3                	mov    %eax,%ebx
     c9b:	e8 00 00 00 00       	callq  ca0 <write_log+0x4d0>
     ca0:	66 0f ef c9          	pxor   %xmm1,%xmm1
     ca4:	66 0f ef c0          	pxor   %xmm0,%xmm0
     ca8:	31 f6                	xor    %esi,%esi
     caa:	f2 48 0f 2a 4c 24 40 	cvtsi2sdq 0x40(%rsp),%xmm1
     cb1:	48 8d 7c 24 30       	lea    0x30(%rsp),%rdi
     cb6:	f2 48 0f 2a 44 24 48 	cvtsi2sdq 0x48(%rsp),%xmm0
     cbd:	f2 0f 5e 05 00 00 00 	divsd  0x0(%rip),%xmm0        # cc5 <write_log+0x4f5>
     cc4:	00 
     cc5:	f2 0f 58 c1          	addsd  %xmm1,%xmm0
     cc9:	f2 0f 11 44 24 08    	movsd  %xmm0,0x8(%rsp)
     ccf:	e8 00 00 00 00       	callq  cd4 <write_log+0x504>
     cd4:	48 8b 44 24 30       	mov    0x30(%rsp),%rax
     cd9:	48 8d 7c 24 28       	lea    0x28(%rsp),%rdi
     cde:	48 89 ee             	mov    %rbp,%rsi
     ce1:	48 89 44 24 28       	mov    %rax,0x28(%rsp)
     ce6:	e8 00 00 00 00       	callq  ceb <write_log+0x51b>
     ceb:	48 83 ec 08          	sub    $0x8,%rsp
     cef:	b9 14 00 00 00       	mov    $0x14,%ecx
     cf4:	4c 8d 05 00 00 00 00 	lea    0x0(%rip),%r8        # cfb <write_log+0x52b>
     cfb:	8b 44 24 48          	mov    0x48(%rsp),%eax
     cff:	ba 01 00 00 00       	mov    $0x1,%edx
     d04:	be 14 00 00 00       	mov    $0x14,%esi
     d09:	48 8d 3d 00 00 00 00 	lea    0x0(%rip),%rdi        # d10 <write_log+0x540>
     d10:	50                   	push   %rax
     d11:	8b 44 24 54          	mov    0x54(%rsp),%eax
     d15:	50                   	push   %rax
     d16:	8b 44 24 60          	mov    0x60(%rsp),%eax
     d1a:	50                   	push   %rax
     d1b:	8b 44 24 6c          	mov    0x6c(%rsp),%eax
     d1f:	50                   	push   %rax
     d20:	8b 44 24 78          	mov    0x78(%rsp),%eax
     d24:	83 c0 01             	add    $0x1,%eax
     d27:	50                   	push   %rax
     d28:	8b 84 24 84 00 00 00 	mov    0x84(%rsp),%eax
     d2f:	44 8d 88 6c 07 00 00 	lea    0x76c(%rax),%r9d
     d36:	31 c0                	xor    %eax,%eax
     d38:	e8 00 00 00 00       	callq  d3d <write_log+0x56d>
     d3d:	48 83 c4 28          	add    $0x28,%rsp
     d41:	41 89 d9             	mov    %ebx,%r9d
     d44:	48 8d 05 00 00 00 00 	lea    0x0(%rip),%rax        # d4b <write_log+0x57b>
     d4b:	50                   	push   %rax
     d4c:	41 b8 4b 01 00 00    	mov    $0x14b,%r8d
     d52:	e9 f3 fe ff ff       	jmpq   c4a <write_log+0x47a>
     d57:	e8 00 00 00 00       	callq  d5c <write_log+0x58c>
     d5c:	0f 1f 40 00          	nopl   0x0(%rax)

0000000000000d60 <create_log_init>:
     d60:	f3 0f 1e fa          	endbr64 
     d64:	41 57                	push   %r15
     d66:	41 56                	push   %r14
     d68:	41 55                	push   %r13
     d6a:	41 54                	push   %r12
     d6c:	55                   	push   %rbp
     d6d:	53                   	push   %rbx
     d6e:	48 81 ec 98 00 00 00 	sub    $0x98,%rsp
     d75:	64 48 8b 04 25 28 00 	mov    %fs:0x28,%rax
     d7c:	00 00 
     d7e:	48 89 84 24 88 00 00 	mov    %rax,0x88(%rsp)
     d85:	00 
     d86:	31 c0                	xor    %eax,%eax
     d88:	48 85 ff             	test   %rdi,%rdi
     d8b:	0f 84 3f 03 00 00    	je     10d0 <create_log_init+0x370>
     d91:	49 89 fe             	mov    %rdi,%r14
     d94:	bf a8 00 00 00       	mov    $0xa8,%edi
     d99:	e8 00 00 00 00       	callq  d9e <create_log_init+0x3e>
     d9e:	49 89 c4             	mov    %rax,%r12
     da1:	48 85 c0             	test   %rax,%rax
     da4:	0f 84 61 05 00 00    	je     130b <create_log_init+0x5ab>
     daa:	4c 89 f7             	mov    %r14,%rdi
     dad:	e8 00 00 00 00       	callq  db2 <create_log_init+0x52>
     db2:	48 89 c3             	mov    %rax,%rbx
     db5:	83 f8 62             	cmp    $0x62,%eax
     db8:	0f 8f da 01 00 00    	jg     f98 <create_log_init+0x238>
     dbe:	8d 50 01             	lea    0x1(%rax),%edx
     dc1:	48 8d 44 24 38       	lea    0x38(%rsp),%rax
     dc6:	f2 0f 10 1d 00 00 00 	movsd  0x0(%rip),%xmm3        # dce <create_log_init+0x6e>
     dcd:	00 
     dce:	48 89 44 24 08       	mov    %rax,0x8(%rsp)
     dd3:	48 8b 05 00 00 00 00 	mov    0x0(%rip),%rax        # dda <create_log_init+0x7a>
     dda:	48 63 d2             	movslq %edx,%rdx
     ddd:	48 8d 6c 24 50       	lea    0x50(%rsp),%rbp
     de2:	f2 0f 11 5c 24 10    	movsd  %xmm3,0x10(%rsp)
     de8:	4c 8d 7c 24 40       	lea    0x40(%rsp),%r15
     ded:	48 8d 1d 00 00 00 00 	lea    0x0(%rip),%rbx        # df4 <create_log_init+0x94>
     df4:	48 89 44 24 18       	mov    %rax,0x18(%rsp)
     df9:	4d 8d 6c 24 08       	lea    0x8(%r12),%r13
     dfe:	b9 a0 00 00 00       	mov    $0xa0,%ecx
     e03:	4c 89 f6             	mov    %r14,%rsi
     e06:	4c 89 ef             	mov    %r13,%rdi
     e09:	e8 00 00 00 00       	callq  e0e <create_log_init+0xae>
     e0e:	4c 89 ee             	mov    %r13,%rsi
     e11:	31 ff                	xor    %edi,%edi
     e13:	e8 00 00 00 00       	callq  e18 <create_log_init+0xb8>
     e18:	49 89 04 24          	mov    %rax,(%r12)
     e1c:	48 85 c0             	test   %rax,%rax
     e1f:	0f 84 db 03 00 00    	je     1200 <create_log_init+0x4a0>
     e25:	f3 0f 7e 05 00 00 00 	movq   0x0(%rip),%xmm0        # e2d <create_log_init+0xcd>
     e2c:	00 
     e2d:	48 8b 05 00 00 00 00 	mov    0x0(%rip),%rax        # e34 <create_log_init+0xd4>
     e34:	41 c7 84 24 88 00 00 	movl   $0x0,0x88(%r12)
     e3b:	00 00 00 00 00 
     e40:	83 05 00 00 00 00 01 	addl   $0x1,0x0(%rip)        # e47 <create_log_init+0xe7>
     e47:	48 83 3d 00 00 00 00 	cmpq   $0x0,0x0(%rip)        # e4f <create_log_init+0xef>
     e4e:	00 
     e4f:	0f 16 05 00 00 00 00 	movhps 0x0(%rip),%xmm0        # e56 <create_log_init+0xf6>
     e56:	49 89 84 24 a0 00 00 	mov    %rax,0xa0(%r12)
     e5d:	00 
     e5e:	41 0f 11 84 24 90 00 	movups %xmm0,0x90(%r12)
     e65:	00 00 
     e67:	0f 84 73 02 00 00    	je     10e0 <create_log_init+0x380>
     e6d:	e8 00 00 00 00       	callq  e72 <create_log_init+0x112>
     e72:	31 f6                	xor    %esi,%esi
     e74:	48 89 ef             	mov    %rbp,%rdi
     e77:	89 44 24 20          	mov    %eax,0x20(%rsp)
     e7b:	e8 00 00 00 00       	callq  e80 <create_log_init+0x120>
     e80:	66 0f ef c9          	pxor   %xmm1,%xmm1
     e84:	66 0f ef c0          	pxor   %xmm0,%xmm0
     e88:	31 f6                	xor    %esi,%esi
     e8a:	f2 48 0f 2a 4c 24 50 	cvtsi2sdq 0x50(%rsp),%xmm1
     e91:	4c 89 ff             	mov    %r15,%rdi
     e94:	f2 48 0f 2a 44 24 58 	cvtsi2sdq 0x58(%rsp),%xmm0
     e9b:	f2 0f 5e 44 24 10    	divsd  0x10(%rsp),%xmm0
     ea1:	f2 0f 58 c1          	addsd  %xmm1,%xmm0
     ea5:	f2 0f 11 44 24 10    	movsd  %xmm0,0x10(%rsp)
     eab:	e8 00 00 00 00       	callq  eb0 <create_log_init+0x150>
     eb0:	48 8b 44 24 40       	mov    0x40(%rsp),%rax
     eb5:	48 8b 7c 24 08       	mov    0x8(%rsp),%rdi
     eba:	48 89 ee             	mov    %rbp,%rsi
     ebd:	48 89 44 24 38       	mov    %rax,0x38(%rsp)
     ec2:	e8 00 00 00 00       	callq  ec7 <create_log_init+0x167>
     ec7:	48 83 ec 08          	sub    $0x8,%rsp
     ecb:	b9 14 00 00 00       	mov    $0x14,%ecx
     ed0:	4c 8d 05 00 00 00 00 	lea    0x0(%rip),%r8        # ed7 <create_log_init+0x177>
     ed7:	8b 44 24 58          	mov    0x58(%rsp),%eax
     edb:	ba 01 00 00 00       	mov    $0x1,%edx
     ee0:	be 14 00 00 00       	mov    $0x14,%esi
     ee5:	48 8d 3d 00 00 00 00 	lea    0x0(%rip),%rdi        # eec <create_log_init+0x18c>
     eec:	50                   	push   %rax
     eed:	8b 44 24 64          	mov    0x64(%rsp),%eax
     ef1:	50                   	push   %rax
     ef2:	8b 44 24 70          	mov    0x70(%rsp),%eax
     ef6:	50                   	push   %rax
     ef7:	8b 44 24 7c          	mov    0x7c(%rsp),%eax
     efb:	50                   	push   %rax
     efc:	8b 84 24 88 00 00 00 	mov    0x88(%rsp),%eax
     f03:	83 c0 01             	add    $0x1,%eax
     f06:	50                   	push   %rax
     f07:	8b 84 24 94 00 00 00 	mov    0x94(%rsp),%eax
     f0e:	44 8d 88 6c 07 00 00 	lea    0x76c(%rax),%r9d
     f15:	31 c0                	xor    %eax,%eax
     f17:	e8 00 00 00 00       	callq  f1c <create_log_init+0x1bc>
     f1c:	48 83 c4 28          	add    $0x28,%rsp
     f20:	48 8d 15 00 00 00 00 	lea    0x0(%rip),%rdx        # f27 <create_log_init+0x1c7>
     f27:	41 b8 06 01 00 00    	mov    $0x106,%r8d
     f2d:	53                   	push   %rbx
     f2e:	44 8b 54 24 30       	mov    0x30(%rsp),%r10d
     f33:	48 8d 0d 00 00 00 00 	lea    0x0(%rip),%rcx        # f3a <create_log_init+0x1da>
     f3a:	48 8d 35 00 00 00 00 	lea    0x0(%rip),%rsi        # f41 <create_log_init+0x1e1>
     f41:	f2 0f 10 44 24 20    	movsd  0x20(%rsp),%xmm0
     f47:	bf 01 00 00 00       	mov    $0x1,%edi
     f4c:	b8 01 00 00 00       	mov    $0x1,%eax
     f51:	45 89 d1             	mov    %r10d,%r9d
     f54:	e8 00 00 00 00       	callq  f59 <create_log_init+0x1f9>
     f59:	48 8b 44 24 28       	mov    0x28(%rsp),%rax
     f5e:	48 8b 38             	mov    (%rax),%rdi
     f61:	e8 00 00 00 00       	callq  f66 <create_log_init+0x206>
     f66:	58                   	pop    %rax
     f67:	5a                   	pop    %rdx
     f68:	48 8b 84 24 88 00 00 	mov    0x88(%rsp),%rax
     f6f:	00 
     f70:	64 48 33 04 25 28 00 	xor    %fs:0x28,%rax
     f77:	00 00 
     f79:	0f 85 87 03 00 00    	jne    1306 <create_log_init+0x5a6>
     f7f:	48 81 c4 98 00 00 00 	add    $0x98,%rsp
     f86:	4c 89 e0             	mov    %r12,%rax
     f89:	5b                   	pop    %rbx
     f8a:	5d                   	pop    %rbp
     f8b:	41 5c                	pop    %r12
     f8d:	41 5d                	pop    %r13
     f8f:	41 5e                	pop    %r14
     f91:	41 5f                	pop    %r15
     f93:	c3                   	retq   
     f94:	0f 1f 40 00          	nopl   0x0(%rax)
     f98:	e8 00 00 00 00       	callq  f9d <create_log_init+0x23d>
     f9d:	48 8d 6c 24 50       	lea    0x50(%rsp),%rbp
     fa2:	31 f6                	xor    %esi,%esi
     fa4:	4c 8d 7c 24 40       	lea    0x40(%rsp),%r15
     fa9:	48 89 ef             	mov    %rbp,%rdi
     fac:	41 89 c5             	mov    %eax,%r13d
     faf:	e8 00 00 00 00       	callq  fb4 <create_log_init+0x254>
     fb4:	66 0f ef c0          	pxor   %xmm0,%xmm0
     fb8:	66 0f ef c9          	pxor   %xmm1,%xmm1
     fbc:	31 f6                	xor    %esi,%esi
     fbe:	f2 48 0f 2a 44 24 58 	cvtsi2sdq 0x58(%rsp),%xmm0
     fc5:	f2 0f 10 25 00 00 00 	movsd  0x0(%rip),%xmm4        # fcd <create_log_init+0x26d>
     fcc:	00 
     fcd:	4c 89 ff             	mov    %r15,%rdi
     fd0:	f2 48 0f 2a 4c 24 50 	cvtsi2sdq 0x50(%rsp),%xmm1
     fd7:	f2 0f 11 64 24 10    	movsd  %xmm4,0x10(%rsp)
     fdd:	f2 0f 5e c4          	divsd  %xmm4,%xmm0
     fe1:	f2 0f 58 c1          	addsd  %xmm1,%xmm0
     fe5:	f2 0f 11 44 24 18    	movsd  %xmm0,0x18(%rsp)
     feb:	e8 00 00 00 00       	callq  ff0 <create_log_init+0x290>
     ff0:	48 8b 44 24 40       	mov    0x40(%rsp),%rax
     ff5:	48 89 ee             	mov    %rbp,%rsi
     ff8:	48 89 44 24 38       	mov    %rax,0x38(%rsp)
     ffd:	48 8d 44 24 38       	lea    0x38(%rsp),%rax
    1002:	48 89 c7             	mov    %rax,%rdi
    1005:	48 89 44 24 08       	mov    %rax,0x8(%rsp)
    100a:	e8 00 00 00 00       	callq  100f <create_log_init+0x2af>
    100f:	48 83 ec 08          	sub    $0x8,%rsp
    1013:	b9 14 00 00 00       	mov    $0x14,%ecx
    1018:	4c 8d 05 00 00 00 00 	lea    0x0(%rip),%r8        # 101f <create_log_init+0x2bf>
    101f:	8b 44 24 58          	mov    0x58(%rsp),%eax
    1023:	ba 01 00 00 00       	mov    $0x1,%edx
    1028:	be 14 00 00 00       	mov    $0x14,%esi
    102d:	48 8d 3d 00 00 00 00 	lea    0x0(%rip),%rdi        # 1034 <create_log_init+0x2d4>
    1034:	50                   	push   %rax
    1035:	8b 44 24 64          	mov    0x64(%rsp),%eax
    1039:	50                   	push   %rax
    103a:	8b 44 24 70          	mov    0x70(%rsp),%eax
    103e:	50                   	push   %rax
    103f:	8b 44 24 7c          	mov    0x7c(%rsp),%eax
    1043:	50                   	push   %rax
    1044:	8b 84 24 88 00 00 00 	mov    0x88(%rsp),%eax
    104b:	83 c0 01             	add    $0x1,%eax
    104e:	50                   	push   %rax
    104f:	8b 84 24 94 00 00 00 	mov    0x94(%rsp),%eax
    1056:	44 8d 88 6c 07 00 00 	lea    0x76c(%rax),%r9d
    105d:	31 c0                	xor    %eax,%eax
    105f:	e8 00 00 00 00       	callq  1064 <create_log_init+0x304>
    1064:	48 83 c4 28          	add    $0x28,%rsp
    1068:	45 89 e9             	mov    %r13d,%r9d
    106b:	48 8d 15 00 00 00 00 	lea    0x0(%rip),%rdx        # 1072 <create_log_init+0x312>
    1072:	6a 62                	pushq  $0x62
    1074:	41 b8 e9 00 00 00    	mov    $0xe9,%r8d
    107a:	48 8d 0d 00 00 00 00 	lea    0x0(%rip),%rcx        # 1081 <create_log_init+0x321>
    1081:	48 8d 35 00 00 00 00 	lea    0x0(%rip),%rsi        # 1088 <create_log_init+0x328>
    1088:	53                   	push   %rbx
    1089:	48 8d 1d 00 00 00 00 	lea    0x0(%rip),%rbx        # 1090 <create_log_init+0x330>
    1090:	bf 01 00 00 00       	mov    $0x1,%edi
    1095:	b8 01 00 00 00       	mov    $0x1,%eax
    109a:	53                   	push   %rbx
    109b:	f2 0f 10 44 24 38    	movsd  0x38(%rsp),%xmm0
    10a1:	e8 00 00 00 00       	callq  10a6 <create_log_init+0x346>
    10a6:	48 8b 05 00 00 00 00 	mov    0x0(%rip),%rax        # 10ad <create_log_init+0x34d>
    10ad:	48 83 c4 20          	add    $0x20,%rsp
    10b1:	48 8b 38             	mov    (%rax),%rdi
    10b4:	48 89 44 24 18       	mov    %rax,0x18(%rsp)
    10b9:	e8 00 00 00 00       	callq  10be <create_log_init+0x35e>
    10be:	ba 63 00 00 00       	mov    $0x63,%edx
    10c3:	e9 31 fd ff ff       	jmpq   df9 <create_log_init+0x99>
    10c8:	0f 1f 84 00 00 00 00 	nopl   0x0(%rax,%rax,1)
    10cf:	00 
    10d0:	45 31 e4             	xor    %r12d,%r12d
    10d3:	e9 90 fe ff ff       	jmpq   f68 <create_log_init+0x208>
    10d8:	0f 1f 84 00 00 00 00 	nopl   0x0(%rax,%rax,1)
    10df:	00 
    10e0:	4c 89 ee             	mov    %r13,%rsi
    10e3:	bf 01 00 00 00       	mov    $0x1,%edi
    10e8:	e8 00 00 00 00       	callq  10ed <create_log_init+0x38d>
    10ed:	48 89 05 00 00 00 00 	mov    %rax,0x0(%rip)        # 10f4 <create_log_init+0x394>
    10f4:	48 85 c0             	test   %rax,%rax
    10f7:	0f 85 70 fd ff ff    	jne    e6d <create_log_init+0x10d>
    10fd:	e8 00 00 00 00       	callq  1102 <create_log_init+0x3a2>
    1102:	31 f6                	xor    %esi,%esi
    1104:	48 89 ef             	mov    %rbp,%rdi
    1107:	89 44 24 2c          	mov    %eax,0x2c(%rsp)
    110b:	e8 00 00 00 00       	callq  1110 <create_log_init+0x3b0>
    1110:	66 0f ef c9          	pxor   %xmm1,%xmm1
    1114:	66 0f ef c0          	pxor   %xmm0,%xmm0
    1118:	31 f6                	xor    %esi,%esi
    111a:	f2 48 0f 2a 4c 24 50 	cvtsi2sdq 0x50(%rsp),%xmm1
    1121:	4c 89 ff             	mov    %r15,%rdi
    1124:	f2 48 0f 2a 44 24 58 	cvtsi2sdq 0x58(%rsp),%xmm0
    112b:	f2 0f 5e 44 24 10    	divsd  0x10(%rsp),%xmm0
    1131:	f2 0f 58 c1          	addsd  %xmm1,%xmm0
    1135:	f2 0f 11 44 24 20    	movsd  %xmm0,0x20(%rsp)
    113b:	e8 00 00 00 00       	callq  1140 <create_log_init+0x3e0>
    1140:	48 8b 44 24 40       	mov    0x40(%rsp),%rax
    1145:	48 8b 7c 24 08       	mov    0x8(%rsp),%rdi
    114a:	48 89 ee             	mov    %rbp,%rsi
    114d:	48 89 44 24 38       	mov    %rax,0x38(%rsp)
    1152:	e8 00 00 00 00       	callq  1157 <create_log_init+0x3f7>
    1157:	48 83 ec 08          	sub    $0x8,%rsp
    115b:	b9 14 00 00 00       	mov    $0x14,%ecx
    1160:	4c 8d 05 00 00 00 00 	lea    0x0(%rip),%r8        # 1167 <create_log_init+0x407>
    1167:	8b 44 24 58          	mov    0x58(%rsp),%eax
    116b:	ba 01 00 00 00       	mov    $0x1,%edx
    1170:	be 14 00 00 00       	mov    $0x14,%esi
    1175:	48 8d 3d 00 00 00 00 	lea    0x0(%rip),%rdi        # 117c <create_log_init+0x41c>
    117c:	50                   	push   %rax
    117d:	8b 44 24 64          	mov    0x64(%rsp),%eax
    1181:	50                   	push   %rax
    1182:	8b 44 24 70          	mov    0x70(%rsp),%eax
    1186:	50                   	push   %rax
    1187:	8b 44 24 7c          	mov    0x7c(%rsp),%eax
    118b:	50                   	push   %rax
    118c:	8b 84 24 88 00 00 00 	mov    0x88(%rsp),%eax
    1193:	83 c0 01             	add    $0x1,%eax
    1196:	50                   	push   %rax
    1197:	8b 84 24 94 00 00 00 	mov    0x94(%rsp),%eax
    119e:	44 8d 88 6c 07 00 00 	lea    0x76c(%rax),%r9d
    11a5:	31 c0                	xor    %eax,%eax
    11a7:	e8 00 00 00 00       	callq  11ac <create_log_init+0x44c>
    11ac:	48 83 c4 28          	add    $0x28,%rsp
    11b0:	bf 01 00 00 00       	mov    $0x1,%edi
    11b5:	48 8d 0d 00 00 00 00 	lea    0x0(%rip),%rcx        # 11bc <create_log_init+0x45c>
    11bc:	53                   	push   %rbx
    11bd:	44 8b 54 24 3c       	mov    0x3c(%rsp),%r10d
    11c2:	48 8d 35 00 00 00 00 	lea    0x0(%rip),%rsi        # 11c9 <create_log_init+0x469>
    11c9:	41 b8 02 01 00 00    	mov    $0x102,%r8d
    11cf:	f2 0f 10 44 24 30    	movsd  0x30(%rsp),%xmm0
    11d5:	48 8d 15 00 00 00 00 	lea    0x0(%rip),%rdx        # 11dc <create_log_init+0x47c>
    11dc:	b8 01 00 00 00       	mov    $0x1,%eax
    11e1:	45 89 d1             	mov    %r10d,%r9d
    11e4:	e8 00 00 00 00       	callq  11e9 <create_log_init+0x489>
    11e9:	48 8b 44 24 28       	mov    0x28(%rsp),%rax
    11ee:	48 8b 38             	mov    (%rax),%rdi
    11f1:	e8 00 00 00 00       	callq  11f6 <create_log_init+0x496>
    11f6:	59                   	pop    %rcx
    11f7:	5e                   	pop    %rsi
    11f8:	e9 70 fc ff ff       	jmpq   e6d <create_log_init+0x10d>
    11fd:	0f 1f 00             	nopl   (%rax)
    1200:	e8 00 00 00 00       	callq  1205 <create_log_init+0x4a5>
    1205:	31 f6                	xor    %esi,%esi
    1207:	48 89 ef             	mov    %rbp,%rdi
    120a:	41 89 c5             	mov    %eax,%r13d
    120d:	e8 00 00 00 00       	callq  1212 <create_log_init+0x4b2>
    1212:	66 0f ef c9          	pxor   %xmm1,%xmm1
    1216:	66 0f ef c0          	pxor   %xmm0,%xmm0
    121a:	31 f6                	xor    %esi,%esi
    121c:	f2 48 0f 2a 4c 24 50 	cvtsi2sdq 0x50(%rsp),%xmm1
    1223:	4c 89 ff             	mov    %r15,%rdi
    1226:	f2 48 0f 2a 44 24 58 	cvtsi2sdq 0x58(%rsp),%xmm0
    122d:	f2 0f 5e 44 24 10    	divsd  0x10(%rsp),%xmm0
    1233:	f2 0f 58 c1          	addsd  %xmm1,%xmm0
    1237:	f2 0f 11 44 24 10    	movsd  %xmm0,0x10(%rsp)
    123d:	e8 00 00 00 00       	callq  1242 <create_log_init+0x4e2>
    1242:	48 8b 44 24 40       	mov    0x40(%rsp),%rax
    1247:	48 8b 7c 24 08       	mov    0x8(%rsp),%rdi
    124c:	48 89 ee             	mov    %rbp,%rsi
    124f:	48 89 44 24 38       	mov    %rax,0x38(%rsp)
    1254:	e8 00 00 00 00       	callq  1259 <create_log_init+0x4f9>
    1259:	48 83 ec 08          	sub    $0x8,%rsp
    125d:	b9 14 00 00 00       	mov    $0x14,%ecx
    1262:	4c 8d 05 00 00 00 00 	lea    0x0(%rip),%r8        # 1269 <create_log_init+0x509>
    1269:	8b 44 24 58          	mov    0x58(%rsp),%eax
    126d:	ba 01 00 00 00       	mov    $0x1,%edx
    1272:	be 14 00 00 00       	mov    $0x14,%esi
    1277:	48 8d 3d 00 00 00 00 	lea    0x0(%rip),%rdi        # 127e <create_log_init+0x51e>
    127e:	50                   	push   %rax
    127f:	8b 44 24 64          	mov    0x64(%rsp),%eax
    1283:	50                   	push   %rax
    1284:	8b 44 24 70          	mov    0x70(%rsp),%eax
    1288:	50                   	push   %rax
    1289:	8b 44 24 7c          	mov    0x7c(%rsp),%eax
    128d:	50                   	push   %rax
    128e:	8b 84 24 88 00 00 00 	mov    0x88(%rsp),%eax
    1295:	83 c0 01             	add    $0x1,%eax
    1298:	50                   	push   %rax
    1299:	8b 84 24 94 00 00 00 	mov    0x94(%rsp),%eax
    12a0:	44 8d 88 6c 07 00 00 	lea    0x76c(%rax),%r9d
    12a7:	31 c0                	xor    %eax,%eax
    12a9:	e8 00 00 00 00       	callq  12ae <create_log_init+0x54e>
    12ae:	48 83 c4 28          	add    $0x28,%rsp
    12b2:	45 89 e9             	mov    %r13d,%r9d
    12b5:	41 b8 f0 00 00 00    	mov    $0xf0,%r8d
    12bb:	53                   	push   %rbx
    12bc:	f2 0f 10 44 24 20    	movsd  0x20(%rsp),%xmm0
    12c2:	48 8d 0d 00 00 00 00 	lea    0x0(%rip),%rcx        # 12c9 <create_log_init+0x569>
    12c9:	48 8d 15 00 00 00 00 	lea    0x0(%rip),%rdx        # 12d0 <create_log_init+0x570>
    12d0:	48 8d 35 00 00 00 00 	lea    0x0(%rip),%rsi        # 12d7 <create_log_init+0x577>
    12d7:	bf 01 00 00 00       	mov    $0x1,%edi
    12dc:	b8 01 00 00 00       	mov    $0x1,%eax
    12e1:	e8 00 00 00 00       	callq  12e6 <create_log_init+0x586>
    12e6:	48 8b 44 24 28       	mov    0x28(%rsp),%rax
    12eb:	48 8b 38             	mov    (%rax),%rdi
    12ee:	e8 00 00 00 00       	callq  12f3 <create_log_init+0x593>
    12f3:	4c 89 e7             	mov    %r12,%rdi
    12f6:	45 31 e4             	xor    %r12d,%r12d
    12f9:	e8 00 00 00 00       	callq  12fe <create_log_init+0x59e>
    12fe:	5f                   	pop    %rdi
    12ff:	41 58                	pop    %r8
    1301:	e9 62 fc ff ff       	jmpq   f68 <create_log_init+0x208>
    1306:	e8 00 00 00 00       	callq  130b <create_log_init+0x5ab>
    130b:	e8 00 00 00 00       	callq  1310 <create_log_init+0x5b0>
    1310:	4c 8d 6c 24 50       	lea    0x50(%rsp),%r13
    1315:	8b 38                	mov    (%rax),%edi
    1317:	e8 00 00 00 00       	callq  131c <create_log_init+0x5bc>
    131c:	48 89 c5             	mov    %rax,%rbp
    131f:	e8 00 00 00 00       	callq  1324 <create_log_init+0x5c4>
    1324:	31 f6                	xor    %esi,%esi
    1326:	4c 89 ef             	mov    %r13,%rdi
    1329:	89 c3                	mov    %eax,%ebx
    132b:	e8 00 00 00 00       	callq  1330 <create_log_init+0x5d0>
    1330:	66 0f ef c9          	pxor   %xmm1,%xmm1
    1334:	66 0f ef c0          	pxor   %xmm0,%xmm0
    1338:	31 f6                	xor    %esi,%esi
    133a:	f2 48 0f 2a 4c 24 50 	cvtsi2sdq 0x50(%rsp),%xmm1
    1341:	48 8d 7c 24 40       	lea    0x40(%rsp),%rdi
    1346:	f2 48 0f 2a 44 24 58 	cvtsi2sdq 0x58(%rsp),%xmm0
    134d:	f2 0f 5e 05 00 00 00 	divsd  0x0(%rip),%xmm0        # 1355 <create_log_init+0x5f5>
    1354:	00 
    1355:	f2 0f 58 c1          	addsd  %xmm1,%xmm0
    1359:	f2 0f 11 44 24 08    	movsd  %xmm0,0x8(%rsp)
    135f:	e8 00 00 00 00       	callq  1364 <create_log_init+0x604>
    1364:	48 8b 44 24 40       	mov    0x40(%rsp),%rax
    1369:	48 8d 7c 24 38       	lea    0x38(%rsp),%rdi
    136e:	4c 89 ee             	mov    %r13,%rsi
    1371:	48 89 44 24 38       	mov    %rax,0x38(%rsp)
    1376:	e8 00 00 00 00       	callq  137b <create_log_init+0x61b>
    137b:	b9 14 00 00 00       	mov    $0x14,%ecx
    1380:	ba 01 00 00 00       	mov    $0x1,%edx
    1385:	4c 8d 05 00 00 00 00 	lea    0x0(%rip),%r8        # 138c <create_log_init+0x62c>
    138c:	41 51                	push   %r9
    138e:	8b 44 24 58          	mov    0x58(%rsp),%eax
    1392:	be 14 00 00 00       	mov    $0x14,%esi
    1397:	48 8d 3d 00 00 00 00 	lea    0x0(%rip),%rdi        # 139e <create_log_init+0x63e>
    139e:	50                   	push   %rax
    139f:	8b 44 24 64          	mov    0x64(%rsp),%eax
    13a3:	50                   	push   %rax
    13a4:	8b 44 24 70          	mov    0x70(%rsp),%eax
    13a8:	50                   	push   %rax
    13a9:	8b 44 24 7c          	mov    0x7c(%rsp),%eax
    13ad:	50                   	push   %rax
    13ae:	8b 84 24 88 00 00 00 	mov    0x88(%rsp),%eax
    13b5:	83 c0 01             	add    $0x1,%eax
    13b8:	50                   	push   %rax
    13b9:	8b 84 24 94 00 00 00 	mov    0x94(%rsp),%eax
    13c0:	44 8d 88 6c 07 00 00 	lea    0x76c(%rax),%r9d
    13c7:	31 c0                	xor    %eax,%eax
    13c9:	e8 00 00 00 00       	callq  13ce <create_log_init+0x66e>
    13ce:	48 83 c4 30          	add    $0x30,%rsp
    13d2:	41 89 d9             	mov    %ebx,%r9d
    13d5:	48 8d 05 00 00 00 00 	lea    0x0(%rip),%rax        # 13dc <create_log_init+0x67c>
    13dc:	55                   	push   %rbp
    13dd:	41 b8 e3 00 00 00    	mov    $0xe3,%r8d
    13e3:	48 8d 0d 00 00 00 00 	lea    0x0(%rip),%rcx        # 13ea <create_log_init+0x68a>
    13ea:	48 8d 15 00 00 00 00 	lea    0x0(%rip),%rdx        # 13f1 <create_log_init+0x691>
    13f1:	50                   	push   %rax
    13f2:	f2 0f 10 44 24 18    	movsd  0x18(%rsp),%xmm0
    13f8:	bf 01 00 00 00       	mov    $0x1,%edi
    13fd:	b8 01 00 00 00       	mov    $0x1,%eax
    1402:	48 8d 35 00 00 00 00 	lea    0x0(%rip),%rsi        # 1409 <create_log_init+0x6a9>
    1409:	e8 00 00 00 00       	callq  140e <create_log_init+0x6ae>
    140e:	48 8b 05 00 00 00 00 	mov    0x0(%rip),%rax        # 1415 <create_log_init+0x6b5>
    1415:	48 8b 38             	mov    (%rax),%rdi
    1418:	e8 00 00 00 00       	callq  141d <create_log_init+0x6bd>
    141d:	41 5a                	pop    %r10
    141f:	41 5b                	pop    %r11
    1421:	e9 42 fb ff ff       	jmpq   f68 <create_log_init+0x208>
    1426:	66 2e 0f 1f 84 00 00 	nopw   %cs:0x0(%rax,%rax,1)
    142d:	00 00 00 

0000000000001430 <set_pub_log_out>:
    1430:	f3 0f 1e fa          	endbr64 
    1434:	89 3d 00 00 00 00    	mov    %edi,0x0(%rip)        # 143a <set_pub_log_out+0xa>
    143a:	c3                   	retq   
    143b:	0f 1f 44 00 00       	nopl   0x0(%rax,%rax,1)

0000000000001440 <test_log_obj>:
    1440:	f3 0f 1e fa          	endbr64 
    1444:	55                   	push   %rbp
    1445:	bf 02 00 00 00       	mov    $0x2,%edi
    144a:	53                   	push   %rbx
    144b:	48 81 ec 18 04 00 00 	sub    $0x418,%rsp
    1452:	64 48 8b 04 25 28 00 	mov    %fs:0x28,%rax
    1459:	00 00 
    145b:	48 89 84 24 08 04 00 	mov    %rax,0x408(%rsp)
    1462:	00 
    1463:	31 c0                	xor    %eax,%eax
    1465:	48 89 e5             	mov    %rsp,%rbp
    1468:	e8 00 00 00 00       	callq  146d <test_log_obj+0x2d>
    146d:	48 8d 3d 00 00 00 00 	lea    0x0(%rip),%rdi        # 1474 <test_log_obj+0x34>
    1474:	e8 00 00 00 00       	callq  1479 <test_log_obj+0x39>
    1479:	48 89 c3             	mov    %rax,%rbx
    147c:	48 85 c0             	test   %rax,%rax
    147f:	74 4c                	je     14cd <test_log_obj+0x8d>
    1481:	48 89 c7             	mov    %rax,%rdi
    1484:	31 f6                	xor    %esi,%esi
    1486:	ff 90 90 00 00 00    	callq  *0x90(%rax)
    148c:	b9 00 04 00 00       	mov    $0x400,%ecx
    1491:	48 89 ef             	mov    %rbp,%rdi
    1494:	31 c0                	xor    %eax,%eax
    1496:	4c 8d 05 00 00 00 00 	lea    0x0(%rip),%r8        # 149d <test_log_obj+0x5d>
    149d:	ba 01 00 00 00       	mov    $0x1,%edx
    14a2:	be 00 04 00 00       	mov    $0x400,%esi
    14a7:	49 89 d9             	mov    %rbx,%r9
    14aa:	e8 00 00 00 00       	callq  14af <test_log_obj+0x6f>
    14af:	b9 80 01 00 00       	mov    $0x180,%ecx
    14b4:	48 89 ee             	mov    %rbp,%rsi
    14b7:	48 89 df             	mov    %rbx,%rdi
    14ba:	4c 8d 05 00 00 00 00 	lea    0x0(%rip),%r8        # 14c1 <test_log_obj+0x81>
    14c1:	48 8d 15 00 00 00 00 	lea    0x0(%rip),%rdx        # 14c8 <test_log_obj+0x88>
    14c8:	e8 00 00 00 00       	callq  14cd <test_log_obj+0x8d>
    14cd:	49 89 d9             	mov    %rbx,%r9
    14d0:	4c 8d 05 00 00 00 00 	lea    0x0(%rip),%r8        # 14d7 <test_log_obj+0x97>
    14d7:	48 89 ef             	mov    %rbp,%rdi
    14da:	31 c0                	xor    %eax,%eax
    14dc:	b9 00 04 00 00       	mov    $0x400,%ecx
    14e1:	ba 01 00 00 00       	mov    $0x1,%edx
    14e6:	be 00 04 00 00       	mov    $0x400,%esi
    14eb:	e8 00 00 00 00       	callq  14f0 <test_log_obj+0xb0>
    14f0:	31 ff                	xor    %edi,%edi
    14f2:	b9 82 01 00 00       	mov    $0x182,%ecx
    14f7:	48 89 ee             	mov    %rbp,%rsi
    14fa:	4c 8d 05 00 00 00 00 	lea    0x0(%rip),%r8        # 1501 <test_log_obj+0xc1>
    1501:	48 8d 15 00 00 00 00 	lea    0x0(%rip),%rdx        # 1508 <test_log_obj+0xc8>
    1508:	e8 00 00 00 00       	callq  150d <test_log_obj+0xcd>
    150d:	48 89 df             	mov    %rbx,%rdi
    1510:	ff 93 a0 00 00 00    	callq  *0xa0(%rbx)
    1516:	48 8b 84 24 08 04 00 	mov    0x408(%rsp),%rax
    151d:	00 
    151e:	64 48 33 04 25 28 00 	xor    %fs:0x28,%rax
    1525:	00 00 
    1527:	75 0a                	jne    1533 <test_log_obj+0xf3>
    1529:	48 81 c4 18 04 00 00 	add    $0x418,%rsp
    1530:	5b                   	pop    %rbx
    1531:	5d                   	pop    %rbp
    1532:	c3                   	retq   
    1533:	e8 00 00 00 00       	callq  1538 <test_log_obj+0xf8>
