	.file	"main.cpp"
	.text
.Ltext0:
	.p2align 4
	.globl	_Z7encryptPhjh
	.type	_Z7encryptPhjh, @function
_Z7encryptPhjh:
.LVL0:
.LFB314:
	.file 1 "main.cpp"
	.loc 1 94 1 view -0
	.cfi_startproc
	.loc 1 94 1 is_stmt 0 view .LVU1
	endbr64
	.loc 1 95 5 is_stmt 1 view .LVU2
.LVL1:
.LBB89:
	.loc 1 95 28 view .LVU3
.LBE89:
	.loc 1 94 1 is_stmt 0 view .LVU4
	movl	%edx, %eax
.LBB90:
	.loc 1 95 28 view .LVU5
	testl	%esi, %esi
	je	.L2
	leal	-1(%rsi), %edx
.LVL2:
	.loc 1 95 28 view .LVU6
	cmpl	$14, %edx
	jbe	.L6
	movd	%eax, %xmm1
	movl	%esi, %edx
	movq	%rdi, %rcx
	punpcklbw	%xmm1, %xmm1
	shrl	$4, %edx
	punpcklwd	%xmm1, %xmm1
	salq	$4, %rdx
	pshufd	$0, %xmm1, %xmm1
	addq	%rdi, %rdx
.LVL3:
	.p2align 4,,10
	.p2align 3
.L4:
	.loc 1 97 9 is_stmt 1 discriminator 2 view .LVU7
	.loc 1 97 14 is_stmt 0 discriminator 2 view .LVU8
	movdqu	(%rcx), %xmm0
	addq	$16, %rcx
	pxor	%xmm1, %xmm0
	movups	%xmm0, -16(%rcx)
	.loc 1 95 5 is_stmt 1 discriminator 2 view .LVU9
	.loc 1 95 28 discriminator 2 view .LVU10
	cmpq	%rdx, %rcx
	jne	.L4
	movl	%esi, %edx
	andl	$-16, %edx
	testb	$15, %sil
	je	.L2
.L3:
.LVL4:
	.loc 1 97 9 view .LVU11
	.loc 1 97 14 is_stmt 0 view .LVU12
	movl	%edx, %ecx
	xorb	%al, (%rdi,%rcx)
	.loc 1 95 5 is_stmt 1 view .LVU13
	leal	1(%rdx), %ecx
.LVL5:
	.loc 1 95 28 view .LVU14
	cmpl	%ecx, %esi
	jbe	.L2
	.loc 1 97 9 view .LVU15
	.loc 1 97 14 is_stmt 0 view .LVU16
	xorb	%al, (%rdi,%rcx)
	.loc 1 95 5 is_stmt 1 view .LVU17
	leal	2(%rdx), %ecx
.LVL6:
	.loc 1 95 28 view .LVU18
	cmpl	%ecx, %esi
	jbe	.L2
	.loc 1 97 9 view .LVU19
	.loc 1 97 14 is_stmt 0 view .LVU20
	xorb	%al, (%rdi,%rcx)
	.loc 1 95 5 is_stmt 1 view .LVU21
	leal	3(%rdx), %ecx
.LVL7:
	.loc 1 95 28 view .LVU22
	cmpl	%ecx, %esi
	jbe	.L2
	.loc 1 97 9 view .LVU23
	.loc 1 97 14 is_stmt 0 view .LVU24
	xorb	%al, (%rdi,%rcx)
	.loc 1 95 5 is_stmt 1 view .LVU25
	leal	4(%rdx), %ecx
.LVL8:
	.loc 1 95 28 view .LVU26
	cmpl	%ecx, %esi
	jbe	.L2
	.loc 1 97 9 view .LVU27
	.loc 1 97 14 is_stmt 0 view .LVU28
	xorb	%al, (%rdi,%rcx)
	.loc 1 95 5 is_stmt 1 view .LVU29
	leal	5(%rdx), %ecx
.LVL9:
	.loc 1 95 28 view .LVU30
	cmpl	%ecx, %esi
	jbe	.L2
	.loc 1 97 9 view .LVU31
	.loc 1 97 14 is_stmt 0 view .LVU32
	xorb	%al, (%rdi,%rcx)
	.loc 1 95 5 is_stmt 1 view .LVU33
	leal	6(%rdx), %ecx
.LVL10:
	.loc 1 95 28 view .LVU34
	cmpl	%ecx, %esi
	jbe	.L2
	.loc 1 97 9 view .LVU35
	.loc 1 97 14 is_stmt 0 view .LVU36
	xorb	%al, (%rdi,%rcx)
	.loc 1 95 5 is_stmt 1 view .LVU37
	leal	7(%rdx), %ecx
.LVL11:
	.loc 1 95 28 view .LVU38
	cmpl	%ecx, %esi
	jbe	.L2
	.loc 1 97 9 view .LVU39
	.loc 1 97 14 is_stmt 0 view .LVU40
	xorb	%al, (%rdi,%rcx)
	.loc 1 95 5 is_stmt 1 view .LVU41
	leal	8(%rdx), %ecx
.LVL12:
	.loc 1 95 28 view .LVU42
	cmpl	%ecx, %esi
	jbe	.L2
	.loc 1 97 9 view .LVU43
	.loc 1 97 14 is_stmt 0 view .LVU44
	xorb	%al, (%rdi,%rcx)
	.loc 1 95 5 is_stmt 1 view .LVU45
	leal	9(%rdx), %ecx
.LVL13:
	.loc 1 95 28 view .LVU46
	cmpl	%ecx, %esi
	jbe	.L2
	.loc 1 97 9 view .LVU47
	.loc 1 97 14 is_stmt 0 view .LVU48
	xorb	%al, (%rdi,%rcx)
	.loc 1 95 5 is_stmt 1 view .LVU49
	leal	10(%rdx), %ecx
.LVL14:
	.loc 1 95 28 view .LVU50
	cmpl	%ecx, %esi
	jbe	.L2
	.loc 1 97 9 view .LVU51
	.loc 1 97 14 is_stmt 0 view .LVU52
	xorb	%al, (%rdi,%rcx)
	.loc 1 95 5 is_stmt 1 view .LVU53
	leal	11(%rdx), %ecx
.LVL15:
	.loc 1 95 28 view .LVU54
	cmpl	%ecx, %esi
	jbe	.L2
	.loc 1 97 9 view .LVU55
	.loc 1 97 14 is_stmt 0 view .LVU56
	xorb	%al, (%rdi,%rcx)
	.loc 1 95 5 is_stmt 1 view .LVU57
	leal	12(%rdx), %ecx
.LVL16:
	.loc 1 95 28 view .LVU58
	cmpl	%ecx, %esi
	jbe	.L2
	.loc 1 97 9 view .LVU59
	.loc 1 97 14 is_stmt 0 view .LVU60
	xorb	%al, (%rdi,%rcx)
	.loc 1 95 5 is_stmt 1 view .LVU61
	leal	13(%rdx), %ecx
.LVL17:
	.loc 1 95 28 view .LVU62
	cmpl	%ecx, %esi
	jbe	.L2
	.loc 1 97 9 view .LVU63
	.loc 1 95 5 is_stmt 0 view .LVU64
	addl	$14, %edx
	.loc 1 97 14 view .LVU65
	xorb	%al, (%rdi,%rcx)
	.loc 1 95 5 is_stmt 1 view .LVU66
.LVL18:
	.loc 1 95 28 view .LVU67
	cmpl	%edx, %esi
	jbe	.L2
	.loc 1 97 9 view .LVU68
	.loc 1 97 14 is_stmt 0 view .LVU69
	xorb	%al, (%rdi,%rdx)
	.loc 1 95 5 is_stmt 1 view .LVU70
	.loc 1 95 28 view .LVU71
.L2:
	.loc 1 95 28 is_stmt 0 view .LVU72
.LBE90:
	.loc 1 99 5 is_stmt 1 view .LVU73
	.loc 1 99 21 is_stmt 0 view .LVU74
	xorl	$10, %eax
	.loc 1 100 1 view .LVU75
	ret
.LVL19:
.L6:
.LBB91:
	.loc 1 95 22 view .LVU76
	xorl	%edx, %edx
	jmp	.L3
.LBE91:
	.cfi_endproc
.LFE314:
	.size	_Z7encryptPhjh, .-_Z7encryptPhjh
	.p2align 4
	.globl	_Z7decryptPhjh
	.type	_Z7decryptPhjh, @function
_Z7decryptPhjh:
.LVL20:
.LFB315:
	.loc 1 103 1 is_stmt 1 view -0
	.cfi_startproc
	.loc 1 103 1 is_stmt 0 view .LVU78
	endbr64
	.loc 1 104 5 is_stmt 1 view .LVU79
	.loc 1 104 9 is_stmt 0 view .LVU80
	xorl	$10, %edx
.LVL21:
	.loc 1 105 5 is_stmt 1 view .LVU81
.LBB92:
	.loc 1 105 28 view .LVU82
	testl	%esi, %esi
	je	.L12
	leal	-1(%rsi), %eax
	cmpl	$14, %eax
	jbe	.L17
	movd	%edx, %xmm1
	movl	%esi, %ecx
	movq	%rdi, %rax
	punpcklbw	%xmm1, %xmm1
	shrl	$4, %ecx
	punpcklwd	%xmm1, %xmm1
	salq	$4, %rcx
	pshufd	$0, %xmm1, %xmm1
	addq	%rdi, %rcx
.LVL22:
	.p2align 4,,10
	.p2align 3
.L15:
	.loc 1 107 9 discriminator 2 view .LVU83
	.loc 1 107 14 is_stmt 0 discriminator 2 view .LVU84
	movdqu	(%rax), %xmm0
	addq	$16, %rax
	pxor	%xmm1, %xmm0
	movups	%xmm0, -16(%rax)
	.loc 1 105 5 is_stmt 1 discriminator 2 view .LVU85
	.loc 1 105 28 discriminator 2 view .LVU86
	cmpq	%rcx, %rax
	jne	.L15
	movl	%esi, %eax
	andl	$-16, %eax
	testb	$15, %sil
	je	.L22
.L14:
.LVL23:
	.loc 1 107 9 view .LVU87
	.loc 1 107 14 is_stmt 0 view .LVU88
	movl	%eax, %ecx
	xorb	%dl, (%rdi,%rcx)
	.loc 1 105 5 is_stmt 1 view .LVU89
	leal	1(%rax), %ecx
.LVL24:
	.loc 1 105 28 view .LVU90
	cmpl	%ecx, %esi
	jbe	.L12
	.loc 1 107 9 view .LVU91
	.loc 1 107 14 is_stmt 0 view .LVU92
	xorb	%dl, (%rdi,%rcx)
	.loc 1 105 5 is_stmt 1 view .LVU93
	leal	2(%rax), %ecx
.LVL25:
	.loc 1 105 28 view .LVU94
	cmpl	%ecx, %esi
	jbe	.L12
	.loc 1 107 9 view .LVU95
	.loc 1 107 14 is_stmt 0 view .LVU96
	xorb	%dl, (%rdi,%rcx)
	.loc 1 105 5 is_stmt 1 view .LVU97
	leal	3(%rax), %ecx
.LVL26:
	.loc 1 105 28 view .LVU98
	cmpl	%ecx, %esi
	jbe	.L12
	.loc 1 107 9 view .LVU99
	.loc 1 107 14 is_stmt 0 view .LVU100
	xorb	%dl, (%rdi,%rcx)
	.loc 1 105 5 is_stmt 1 view .LVU101
	leal	4(%rax), %ecx
.LVL27:
	.loc 1 105 28 view .LVU102
	cmpl	%ecx, %esi
	jbe	.L12
	.loc 1 107 9 view .LVU103
	.loc 1 107 14 is_stmt 0 view .LVU104
	xorb	%dl, (%rdi,%rcx)
	.loc 1 105 5 is_stmt 1 view .LVU105
	leal	5(%rax), %ecx
.LVL28:
	.loc 1 105 28 view .LVU106
	cmpl	%ecx, %esi
	jbe	.L12
	.loc 1 107 9 view .LVU107
	.loc 1 107 14 is_stmt 0 view .LVU108
	xorb	%dl, (%rdi,%rcx)
	.loc 1 105 5 is_stmt 1 view .LVU109
	leal	6(%rax), %ecx
.LVL29:
	.loc 1 105 28 view .LVU110
	cmpl	%ecx, %esi
	jbe	.L12
	.loc 1 107 9 view .LVU111
	.loc 1 107 14 is_stmt 0 view .LVU112
	xorb	%dl, (%rdi,%rcx)
	.loc 1 105 5 is_stmt 1 view .LVU113
	leal	7(%rax), %ecx
.LVL30:
	.loc 1 105 28 view .LVU114
	cmpl	%ecx, %esi
	jbe	.L12
	.loc 1 107 9 view .LVU115
	.loc 1 107 14 is_stmt 0 view .LVU116
	xorb	%dl, (%rdi,%rcx)
	.loc 1 105 5 is_stmt 1 view .LVU117
	leal	8(%rax), %ecx
.LVL31:
	.loc 1 105 28 view .LVU118
	cmpl	%ecx, %esi
	jbe	.L12
	.loc 1 107 9 view .LVU119
	.loc 1 107 14 is_stmt 0 view .LVU120
	xorb	%dl, (%rdi,%rcx)
	.loc 1 105 5 is_stmt 1 view .LVU121
	leal	9(%rax), %ecx
.LVL32:
	.loc 1 105 28 view .LVU122
	cmpl	%ecx, %esi
	jbe	.L12
	.loc 1 107 9 view .LVU123
	.loc 1 107 14 is_stmt 0 view .LVU124
	xorb	%dl, (%rdi,%rcx)
	.loc 1 105 5 is_stmt 1 view .LVU125
	leal	10(%rax), %ecx
.LVL33:
	.loc 1 105 28 view .LVU126
	cmpl	%ecx, %esi
	jbe	.L12
	.loc 1 107 9 view .LVU127
	.loc 1 107 14 is_stmt 0 view .LVU128
	xorb	%dl, (%rdi,%rcx)
	.loc 1 105 5 is_stmt 1 view .LVU129
	leal	11(%rax), %ecx
.LVL34:
	.loc 1 105 28 view .LVU130
	cmpl	%ecx, %esi
	jbe	.L12
	.loc 1 107 9 view .LVU131
	.loc 1 107 14 is_stmt 0 view .LVU132
	xorb	%dl, (%rdi,%rcx)
	.loc 1 105 5 is_stmt 1 view .LVU133
	leal	12(%rax), %ecx
.LVL35:
	.loc 1 105 28 view .LVU134
	cmpl	%ecx, %esi
	jbe	.L12
	.loc 1 107 9 view .LVU135
	.loc 1 107 14 is_stmt 0 view .LVU136
	xorb	%dl, (%rdi,%rcx)
	.loc 1 105 5 is_stmt 1 view .LVU137
	leal	13(%rax), %ecx
.LVL36:
	.loc 1 105 28 view .LVU138
	cmpl	%ecx, %esi
	jbe	.L12
	.loc 1 107 9 view .LVU139
	.loc 1 105 5 is_stmt 0 view .LVU140
	addl	$14, %eax
	.loc 1 107 14 view .LVU141
	xorb	%dl, (%rdi,%rcx)
	.loc 1 105 5 is_stmt 1 view .LVU142
.LVL37:
	.loc 1 105 28 view .LVU143
	cmpl	%eax, %esi
	jbe	.L12
	.loc 1 107 9 view .LVU144
	.loc 1 107 14 is_stmt 0 view .LVU145
	xorb	%dl, (%rdi,%rax)
	.loc 1 105 5 is_stmt 1 view .LVU146
	.loc 1 105 28 view .LVU147
.L12:
	.loc 1 105 28 is_stmt 0 view .LVU148
.LBE92:
	.loc 1 109 1 view .LVU149
	ret
.LVL38:
.L17:
.LBB93:
	.loc 1 105 22 view .LVU150
	xorl	%eax, %eax
	jmp	.L14
.LVL39:
.L22:
	.loc 1 105 22 view .LVU151
	ret
.LBE93:
	.cfi_endproc
.LFE315:
	.size	_Z7decryptPhjh, .-_Z7decryptPhjh
	.section	.rodata.str1.1,"aMS",@progbits,1
.LC0:
	.string	"encode:"
.LC1:
	.string	"%02x"
.LC2:
	.string	"dekey=0x%02x\n"
.LC3:
	.string	"decode:"
.LC4:
	.string	"0x%02x,"
.LC5:
	.string	"0x%02x};\n"
.LC6:
	.string	"\350\247\243\347\240\201Hex\357\274\232"
	.section	.rodata.str1.8,"aMS",@progbits,1
	.align 8
.LC7:
	.string	"7607901a010ecde2d22b2a4a9444828a#1893527031#hypno.7z\nda00919e6c5ba98b81776abefcb0f290#371349772#hypnoappAndroid.7z\n6e8e4a893323ad5c5b8cf19fcea45849#2600#save.rar"
	.section	.rodata.str1.1
.LC8:
	.string	"\345\216\237\345\247\213\357\274\232%s\n"
.LC9:
	.string	"\350\247\243\347\240\201\357\274\232%s\n"
.LC10:
	.string	"\344\273\243\347\240\201\357\274\232"
.LC11:
	.string	"%s"
	.section	.rodata.str1.8
	.align 8
.LC12:
	.string	"\tunsigned char dekey = 0x%02x;\n"
	.align 8
.LC13:
	.string	"\tfor(int i=0;i<sizeof(encode);i++)printf(\"%%c\",encode[i]);printf(\"\\n\");\n"
	.section	.rodata.str1.1
.LC14:
	.string	"w"
.LC15:
	.string	"./123.c"
.LC16:
	.string	"fopen"
	.text
	.p2align 4
	.globl	_Z12creat_decodev
	.type	_Z12creat_decodev, @function
_Z12creat_decodev:
.LFB313:
	.loc 1 13 20 is_stmt 1 view -0
	.cfi_startproc
	endbr64
	pushq	%r15
	.cfi_def_cfa_offset 16
	.cfi_offset 15, -16
	pushq	%r14
	.cfi_def_cfa_offset 24
	.cfi_offset 14, -24
	pushq	%r13
	.cfi_def_cfa_offset 32
	.cfi_offset 13, -32
	pushq	%r12
	.cfi_def_cfa_offset 40
	.cfi_offset 12, -40
	pushq	%rbp
	.cfi_def_cfa_offset 48
	.cfi_offset 6, -48
	pushq	%rbx
	.cfi_def_cfa_offset 56
	.cfi_offset 3, -56
	leaq	-118784(%rsp), %r11
	.cfi_def_cfa 11, 118840
.LPSRL0:
	subq	$4096, %rsp
	orq	$0, (%rsp)
	cmpq	%r11, %rsp
	jne	.LPSRL0
	.cfi_def_cfa_register 7
	subq	$3672, %rsp
	.cfi_def_cfa_offset 122512
	.loc 1 16 16 is_stmt 0 view .LVU153
	movl	$9984, %edx
	xorl	%esi, %esi
.LBB94:
.LBB95:
.LBB96:
	.file 2 "/usr/include/x86_64-linux-gnu/bits/stdio2.h"
	.loc 2 107 23 view .LVU154
	leaq	.LC1(%rip), %r14
.LBE96:
.LBE95:
.LBE94:
	.loc 1 13 20 view .LVU155
	movq	%fs:40, %rax
	movq	%rax, 122440(%rsp)
	xorl	%eax, %eax
	.loc 1 14 2 is_stmt 1 view .LVU156
.LVL40:
	.loc 1 16 2 view .LVU157
	.loc 1 16 16 is_stmt 0 view .LVU158
	leaq	48(%rsp), %rdi
.LBB101:
.LBB102:
	.file 3 "/usr/include/x86_64-linux-gnu/bits/string_fortified.h"
	.loc 3 34 33 view .LVU159
	leaq	32(%rsp), %r12
.LBE102:
.LBE101:
	.loc 1 16 16 view .LVU160
	call	memset@PLT
.LVL41:
	.loc 1 17 2 is_stmt 1 view .LVU161
	.loc 1 17 7 is_stmt 0 view .LVU162
	pxor	%xmm0, %xmm0
	movl	$9984, %edx
	xorl	%esi, %esi
	leaq	10048(%rsp), %rdi
	movaps	%xmm0, 10032(%rsp)
	movq	%r12, %rbx
	leaq	193(%rsp), %rbp
	call	memset@PLT
.LVL42:
	.loc 1 18 2 is_stmt 1 view .LVU163
	.loc 1 19 2 view .LVU164
.LBB105:
.LBI101:
	.loc 3 31 28 view .LVU165
.LBB103:
	.loc 3 34 3 view .LVU166
	.loc 3 34 33 is_stmt 0 view .LVU167
	movl	$114, %r10d
	movq	%r12, 16(%rsp)
	movdqa	.LC17(%rip), %xmm0
	movw	%r10w, 192(%rsp)
.LVL43:
	.loc 3 34 33 view .LVU168
.LBE103:
.LBE105:
	.loc 1 21 2 is_stmt 1 view .LVU169
	.loc 1 23 2 view .LVU170
.LBB106:
.LBI106:
	.loc 2 105 1 view .LVU171
.LBB107:
	.loc 2 107 3 view .LVU172
	.loc 2 107 23 is_stmt 0 view .LVU173
	leaq	.LC0(%rip), %rdi
.LBE107:
.LBE106:
.LBB109:
.LBB104:
	.loc 3 34 33 view .LVU174
	movaps	%xmm0, 32(%rsp)
	movdqa	.LC18(%rip), %xmm0
	movaps	%xmm0, 48(%rsp)
	movdqa	.LC19(%rip), %xmm0
	movaps	%xmm0, 64(%rsp)
	movdqa	.LC20(%rip), %xmm0
	movaps	%xmm0, 80(%rsp)
	movdqa	.LC21(%rip), %xmm0
	movaps	%xmm0, 96(%rsp)
	movdqa	.LC22(%rip), %xmm0
	movaps	%xmm0, 112(%rsp)
	movdqa	.LC23(%rip), %xmm0
	movaps	%xmm0, 128(%rsp)
	movdqa	.LC24(%rip), %xmm0
	movaps	%xmm0, 144(%rsp)
	movdqa	.LC25(%rip), %xmm0
	movaps	%xmm0, 160(%rsp)
	movdqa	.LC26(%rip), %xmm0
	movaps	%xmm0, 176(%rsp)
.LBE104:
.LBE109:
.LBB110:
.LBB108:
	.loc 2 107 23 view .LVU175
	call	puts@PLT
.LVL44:
	.loc 2 107 23 view .LVU176
.LBE108:
.LBE110:
.LBB111:
	.loc 1 24 15 is_stmt 1 view .LVU177
	.p2align 4,,10
	.p2align 3
.L24:
	.loc 1 24 27 discriminator 3 view .LVU178
.LBB99:
.LBI95:
	.loc 2 105 1 discriminator 3 view .LVU179
.LBB97:
	.loc 2 107 3 discriminator 3 view .LVU180
.LBE97:
.LBE99:
	.loc 1 24 33 is_stmt 0 discriminator 3 view .LVU181
	movzbl	(%r12), %edx
.LBB100:
.LBB98:
	.loc 2 107 23 discriminator 3 view .LVU182
	movq	%r14, %rsi
	movl	$1, %edi
	xorl	%eax, %eax
	addq	$1, %r12
.LVL45:
	.loc 2 107 23 discriminator 3 view .LVU183
	call	__printf_chk@PLT
.LVL46:
	.loc 2 107 23 discriminator 3 view .LVU184
.LBE98:
.LBE100:
	.loc 1 24 2 is_stmt 1 discriminator 3 view .LVU185
	.loc 1 24 15 discriminator 3 view .LVU186
	cmpq	%rbp, %r12
	jne	.L24
.LBE111:
	.loc 1 24 53 view .LVU187
.LVL47:
.LBB112:
.LBI112:
	.loc 2 105 1 view .LVU188
.LBB113:
	.loc 2 107 3 view .LVU189
	.loc 2 107 23 is_stmt 0 view .LVU190
	movl	$10, %edi
.LBE113:
.LBE112:
.LBB115:
.LBB116:
.LBB117:
	leaq	.LC4(%rip), %r14
.LBE117:
.LBE116:
.LBE115:
.LBB122:
.LBB114:
	call	putchar@PLT
.LVL48:
	.loc 2 107 23 view .LVU191
.LBE114:
.LBE122:
	.loc 1 26 2 is_stmt 1 view .LVU192
	.loc 1 26 31 is_stmt 0 view .LVU193
	movq	16(%rsp), %r12
	movl	$83, %edx
	movl	$161, %esi
	movq	%r12, %rdi
	call	_Z7encryptPhjh@PLT
.LVL49:
	.loc 1 27 2 is_stmt 1 view .LVU194
.LBB123:
.LBB124:
	.loc 2 107 23 is_stmt 0 view .LVU195
	leaq	.LC2(%rip), %rsi
	movl	$1, %edi
.LBE124:
.LBE123:
	.loc 1 27 8 view .LVU196
	movzbl	%al, %eax
.LBB127:
.LBB125:
	.loc 2 107 23 view .LVU197
	movl	%eax, %edx
.LBE125:
.LBE127:
	.loc 1 27 8 view .LVU198
	movl	%eax, 28(%rsp)
.LVL50:
.LBB128:
.LBI123:
	.loc 2 105 1 is_stmt 1 view .LVU199
.LBB126:
	.loc 2 107 3 view .LVU200
	.loc 2 107 23 is_stmt 0 view .LVU201
	xorl	%eax, %eax
.LVL51:
	.loc 2 107 23 view .LVU202
	call	__printf_chk@PLT
.LVL52:
	.loc 2 107 23 view .LVU203
.LBE126:
.LBE128:
	.loc 1 28 2 is_stmt 1 view .LVU204
.LBB129:
.LBI129:
	.loc 2 105 1 view .LVU205
.LBB130:
	.loc 2 107 3 view .LVU206
	.loc 2 107 23 is_stmt 0 view .LVU207
	leaq	.LC3(%rip), %rdi
	call	puts@PLT
.LVL53:
	.loc 2 107 23 view .LVU208
.LBE130:
.LBE129:
.LBB131:
	.loc 1 29 15 is_stmt 1 view .LVU209
	.p2align 4,,10
	.p2align 3
.L25:
	.loc 1 29 27 discriminator 3 view .LVU210
.LBB120:
.LBI116:
	.loc 2 105 1 discriminator 3 view .LVU211
.LBB118:
	.loc 2 107 3 discriminator 3 view .LVU212
.LBE118:
.LBE120:
	.loc 1 29 33 is_stmt 0 discriminator 3 view .LVU213
	movzbl	(%r12), %edx
.LBB121:
.LBB119:
	.loc 2 107 23 discriminator 3 view .LVU214
	movq	%r14, %rsi
	movl	$1, %edi
	xorl	%eax, %eax
	addq	$1, %r12
.LVL54:
	.loc 2 107 23 discriminator 3 view .LVU215
	call	__printf_chk@PLT
.LVL55:
	.loc 2 107 23 discriminator 3 view .LVU216
.LBE119:
.LBE121:
	.loc 1 29 2 is_stmt 1 discriminator 3 view .LVU217
	.loc 1 29 15 discriminator 3 view .LVU218
	cmpq	%rbp, %r12
	jne	.L25
.LBE131:
	.loc 1 29 56 view .LVU219
.LVL56:
.LBB132:
.LBI132:
	.loc 2 105 1 view .LVU220
.LBB133:
	.loc 2 107 3 view .LVU221
	.loc 2 107 23 is_stmt 0 view .LVU222
	movl	$10, %edi
.LBE133:
.LBE132:
.LBB135:
.LBB136:
	.loc 2 36 34 view .LVU223
	xorl	%r12d, %r12d
.LBE136:
.LBE135:
	.loc 1 31 8 view .LVU224
	movl	$28, %r15d
.LBB140:
.LBB134:
	.loc 2 107 23 view .LVU225
	call	putchar@PLT
.LVL57:
	.loc 2 107 23 view .LVU226
.LBE134:
.LBE140:
	.loc 1 30 2 is_stmt 1 view .LVU227
	.loc 1 31 2 view .LVU228
.LBB141:
.LBI135:
	.loc 2 34 28 view .LVU229
.LBB137:
	.loc 2 36 3 view .LVU230
	.loc 2 36 34 is_stmt 0 view .LVU231
	movdqa	.LC27(%rip), %xmm0
	movabsq	$4404623082692833123, %rax
	movl	$151681824, 10056(%rsp)
	movq	%rax, 10048(%rsp)
	leaq	10032(%rsp), %rax
.LVL58:
	.loc 2 36 34 view .LVU232
.LBE137:
.LBE141:
.LBB142:
.LBB143:
.LBB144:
	leaq	.LC4(%rip), %r14
.LBE144:
.LBE143:
.LBE142:
.LBB157:
.LBB138:
	movb	$0, 10060(%rsp)
.LVL59:
	.loc 2 36 34 view .LVU233
.LBE138:
.LBE157:
	.loc 1 32 2 is_stmt 1 view .LVU234
.LBB158:
	.loc 1 32 15 view .LVU235
	movq	%rax, 8(%rsp)
.LBE158:
.LBB159:
.LBB139:
	.loc 2 36 34 is_stmt 0 view .LVU236
	movaps	%xmm0, 10032(%rsp)
	jmp	.L29
.LVL60:
	.p2align 4,,10
	.p2align 3
.L40:
	.loc 2 36 34 view .LVU237
.LBE139:
.LBE159:
.LBB160:
	imull	$-858993459, %r12d, %eax
	rorl	%eax
	.loc 1 33 10 discriminator 1 view .LVU238
	cmpl	$429496729, %eax
	jbe	.L39
.L27:
	.loc 1 34 3 is_stmt 1 discriminator 2 view .LVU239
.LVL61:
.LBB149:
.LBI143:
	.loc 2 34 28 discriminator 2 view .LVU240
.LBB145:
	.loc 2 36 3 discriminator 2 view .LVU241
	.loc 2 36 34 is_stmt 0 discriminator 2 view .LVU242
	movq	16(%rsp), %rax
	movq	%r14, %rcx
	movq	$-1, %rdx
	movl	$1, %esi
.LBE145:
.LBE149:
	.loc 1 34 9 discriminator 2 view .LVU243
	addl	$5, %r15d
.LVL62:
.LBB150:
.LBB146:
	.loc 2 36 34 discriminator 2 view .LVU244
	movzbl	(%rax,%r12), %r8d
	xorl	%eax, %eax
	call	__sprintf_chk@PLT
.LVL63:
	.loc 2 36 34 discriminator 2 view .LVU245
.LBE146:
.LBE150:
	.loc 1 32 2 is_stmt 1 discriminator 2 view .LVU246
	.loc 1 32 15 discriminator 2 view .LVU247
	cmpl	$159, %r13d
	je	.L28
.LVL64:
.L33:
	.loc 1 32 15 is_stmt 0 discriminator 2 view .LVU248
	addq	$1, %r12
.LVL65:
.L29:
	.loc 1 32 15 discriminator 2 view .LVU249
	movslq	%r15d, %rdi
	movl	%r12d, %r13d
.LVL66:
	.loc 1 33 3 is_stmt 1 view .LVU250
	addq	8(%rsp), %rdi
	testq	%r12, %r12
	jne	.L40
	.loc 1 34 3 view .LVU251
.LVL67:
.LBB151:
	.loc 2 34 28 view .LVU252
.LBB147:
	.loc 2 36 3 view .LVU253
	.loc 2 36 34 is_stmt 0 view .LVU254
	movq	16(%rsp), %rax
	movq	%r14, %rcx
	movq	$-1, %rdx
	movl	$1, %esi
.LBE147:
.LBE151:
	.loc 1 34 9 view .LVU255
	addl	$5, %r15d
.LVL68:
.LBB152:
.LBB148:
	.loc 2 36 34 view .LVU256
	movzbl	(%rax), %r8d
	xorl	%eax, %eax
	call	__sprintf_chk@PLT
.LVL69:
	.loc 2 36 34 view .LVU257
.LBE148:
.LBE152:
	.loc 1 32 2 is_stmt 1 view .LVU258
	.loc 1 32 15 view .LVU259
	jmp	.L33
.LVL70:
	.p2align 4,,10
	.p2align 3
.L39:
	.loc 1 33 23 discriminator 2 view .LVU260
.LBB153:
.LBI153:
	.loc 2 34 28 discriminator 2 view .LVU261
.LBB154:
	.loc 2 36 3 discriminator 2 view .LVU262
	.loc 2 36 34 is_stmt 0 discriminator 2 view .LVU263
	movl	$2314, %r9d
.LBE154:
.LBE153:
	.loc 1 33 29 discriminator 2 view .LVU264
	addl	$2, %r15d
.LVL71:
.LBB156:
.LBB155:
	.loc 2 36 34 discriminator 2 view .LVU265
	movb	$0, 2(%rdi)
.LVL72:
	.loc 2 36 34 discriminator 2 view .LVU266
	movw	%r9w, (%rdi)
	movslq	%r15d, %rdi
	addq	8(%rsp), %rdi
.LBE155:
.LBE156:
	jmp	.L27
.LVL73:
.L28:
	.loc 2 36 34 discriminator 2 view .LVU267
.LBE160:
	.loc 1 36 2 is_stmt 1 view .LVU268
.LBB161:
.LBI161:
	.loc 2 34 28 view .LVU269
.LBB162:
	.loc 2 36 3 view .LVU270
	.loc 2 36 34 is_stmt 0 view .LVU271
	movzbl	192(%rsp), %r8d
	movl	$1, %esi
.LBE162:
.LBE161:
	.loc 1 36 26 view .LVU272
	movslq	%r15d, %rdi
.LBB165:
.LBB163:
	.loc 2 36 34 view .LVU273
	xorl	%eax, %eax
	leaq	.LC5(%rip), %rcx
.LBE163:
.LBE165:
	.loc 1 36 17 view .LVU274
	addq	8(%rsp), %rdi
.LBB166:
.LBB164:
	.loc 2 36 34 view .LVU275
	movq	$-1, %rdx
	call	__sprintf_chk@PLT
.LVL74:
	.loc 2 36 34 view .LVU276
.LBE164:
.LBE166:
	.loc 1 39 2 is_stmt 1 view .LVU277
	.loc 1 39 9 is_stmt 0 view .LVU278
	movl	28(%rsp), %edx
	movq	16(%rsp), %rdi
	movl	$161, %esi
.LBB167:
.LBB168:
.LBB169:
	.loc 2 107 23 view .LVU279
	leaq	.LC1(%rip), %r14
.LBE169:
.LBE168:
.LBE167:
	.loc 1 39 9 view .LVU280
	call	_Z7decryptPhjh@PLT
.LVL75:
	.loc 1 41 2 is_stmt 1 view .LVU281
.LBB174:
.LBI174:
	.loc 2 105 1 view .LVU282
.LBB175:
	.loc 2 107 3 view .LVU283
	.loc 2 107 23 is_stmt 0 view .LVU284
	leaq	.LC6(%rip), %rdi
	call	puts@PLT
.LVL76:
	.loc 2 107 23 view .LVU285
.LBE175:
.LBE174:
.LBB176:
	.loc 1 42 15 is_stmt 1 view .LVU286
	.p2align 4,,10
	.p2align 3
.L30:
	.loc 1 42 27 discriminator 3 view .LVU287
.LBB172:
.LBI168:
	.loc 2 105 1 discriminator 3 view .LVU288
.LBB170:
	.loc 2 107 3 discriminator 3 view .LVU289
.LBE170:
.LBE172:
	.loc 1 42 33 is_stmt 0 discriminator 3 view .LVU290
	movzbl	(%rbx), %edx
.LBB173:
.LBB171:
	.loc 2 107 23 discriminator 3 view .LVU291
	movq	%r14, %rsi
	movl	$1, %edi
	xorl	%eax, %eax
	addq	$1, %rbx
.LVL77:
	.loc 2 107 23 discriminator 3 view .LVU292
	call	__printf_chk@PLT
.LVL78:
	.loc 2 107 23 discriminator 3 view .LVU293
.LBE171:
.LBE173:
	.loc 1 42 2 is_stmt 1 discriminator 3 view .LVU294
	.loc 1 42 15 discriminator 3 view .LVU295
	cmpq	%rbp, %rbx
	jne	.L30
.LBE176:
	.loc 1 42 53 view .LVU296
.LVL79:
.LBB177:
.LBI177:
	.loc 2 105 1 view .LVU297
.LBB178:
	.loc 2 107 3 view .LVU298
	.loc 2 107 23 is_stmt 0 view .LVU299
	movl	$10, %edi
.LBE178:
.LBE177:
.LBB180:
.LBB181:
	.loc 2 36 34 view .LVU300
	leaq	20032(%rsp), %rbp
.LBE181:
.LBE180:
.LBB188:
.LBB179:
	.loc 2 107 23 view .LVU301
	call	putchar@PLT
.LVL80:
	.loc 2 107 23 view .LVU302
.LBE179:
.LBE188:
	.loc 1 43 2 is_stmt 1 view .LVU303
.LBB189:
.LBI189:
	.loc 2 105 1 view .LVU304
.LBB190:
	.loc 2 107 3 view .LVU305
	.loc 2 107 23 is_stmt 0 view .LVU306
	leaq	.LC7(%rip), %rdx
	leaq	.LC8(%rip), %rsi
	xorl	%eax, %eax
	movl	$1, %edi
	call	__printf_chk@PLT
.LVL81:
	.loc 2 107 23 view .LVU307
.LBE190:
.LBE189:
	.loc 1 44 2 is_stmt 1 view .LVU308
.LBB191:
.LBI191:
	.loc 2 105 1 view .LVU309
.LBB192:
	.loc 2 107 3 view .LVU310
	.loc 2 107 23 is_stmt 0 view .LVU311
	movq	16(%rsp), %rdx
	leaq	.LC9(%rip), %rsi
	xorl	%eax, %eax
	movl	$1, %edi
	call	__printf_chk@PLT
.LVL82:
	.loc 2 107 23 view .LVU312
.LBE192:
.LBE191:
	.loc 1 47 2 is_stmt 1 view .LVU313
.LBB193:
.LBI193:
	.loc 2 105 1 view .LVU314
.LBB194:
	.loc 2 107 3 view .LVU315
	.loc 2 107 23 is_stmt 0 view .LVU316
	leaq	.LC10(%rip), %rdi
	call	puts@PLT
.LVL83:
	.loc 2 107 23 view .LVU317
.LBE194:
.LBE193:
	.loc 1 64 2 is_stmt 1 view .LVU318
	.loc 1 65 2 view .LVU319
	.loc 1 66 2 view .LVU320
.LBB195:
.LBI180:
	.loc 2 34 28 view .LVU321
.LBB182:
	.loc 2 36 3 view .LVU322
	.loc 2 36 34 is_stmt 0 view .LVU323
	movl	$15976, %eax
.LBE182:
.LBE195:
.LBB196:
.LBB197:
	movl	$2685, %edx
.LBE197:
.LBE196:
.LBB206:
.LBB183:
	movdqa	.LC28(%rip), %xmm0
	movw	%ax, 20068(%rsp)
.LBE183:
.LBE206:
.LBB207:
.LBB208:
	movl	$9, %ecx
	movabsq	$7955997338050522729, %rax
.LBE208:
.LBE207:
.LBB213:
.LBB214:
	leaq	20246(%rsp), %rdi
.LBE214:
.LBE213:
.LBB221:
.LBB184:
	movaps	%xmm0, 20032(%rsp)
	movdqa	.LC29(%rip), %xmm0
.LBE184:
.LBE221:
.LBB222:
.LBB215:
	leaq	.LC11(%rip), %rsi
.LBE215:
.LBE222:
.LBB223:
.LBB198:
	movw	%dx, 20231(%rsp)
.LBE198:
.LBE223:
.LBB224:
.LBB216:
	movq	8(%rsp), %rdx
.LBE216:
.LBE224:
.LBB225:
.LBB185:
	movaps	%xmm0, 20048(%rsp)
.LBE185:
.LBE225:
.LBB226:
.LBB199:
	movdqa	.LC30(%rip), %xmm0
.LBE199:
.LBE226:
.LBB227:
.LBB209:
	movq	%rax, 20233(%rsp)
.LBE209:
.LBE227:
.LBB228:
.LBB217:
	xorl	%eax, %eax
.LBE217:
.LBE228:
.LBB229:
.LBB200:
	movups	%xmm0, 20071(%rsp)
	movdqa	.LC31(%rip), %xmm0
.LBE200:
.LBE229:
.LBB230:
.LBB210:
	movw	%cx, 20245(%rsp)
.LBE210:
.LBE230:
.LBB231:
.LBB201:
	movups	%xmm0, 20087(%rsp)
	movdqa	.LC32(%rip), %xmm0
.LBE201:
.LBE231:
.LBB232:
.LBB186:
	movl	$778530409, 20064(%rsp)
.LBE186:
.LBE232:
.LBB233:
.LBB202:
	movups	%xmm0, 20103(%rsp)
	movdqa	.LC33(%rip), %xmm0
.LBE202:
.LBE233:
.LBB234:
.LBB187:
	movb	$10, 20070(%rsp)
.LVL84:
	.loc 2 36 34 view .LVU324
.LBE187:
.LBE234:
	.loc 1 67 2 is_stmt 1 view .LVU325
.LBB235:
.LBI196:
	.loc 2 34 28 view .LVU326
.LBB203:
	.loc 2 36 3 view .LVU327
	.loc 2 36 3 is_stmt 0 view .LVU328
.LBE203:
.LBE235:
	.loc 1 73 2 is_stmt 1 view .LVU329
.LBB236:
.LBI207:
	.loc 2 34 28 view .LVU330
.LBB211:
	.loc 2 36 3 view .LVU331
	.loc 2 36 3 is_stmt 0 view .LVU332
.LBE211:
.LBE236:
	.loc 1 74 2 is_stmt 1 view .LVU333
.LBB237:
.LBI213:
	.loc 2 34 28 view .LVU334
.LBB218:
	.loc 2 36 3 view .LVU335
.LBE218:
.LBE237:
.LBB238:
.LBB204:
	.loc 2 36 34 is_stmt 0 view .LVU336
	movups	%xmm0, 20119(%rsp)
	movdqa	.LC34(%rip), %xmm0
.LBE204:
.LBE238:
.LBB239:
.LBB212:
	movl	$175843624, 20241(%rsp)
.LBE212:
.LBE239:
.LBB240:
.LBB205:
	movups	%xmm0, 20135(%rsp)
	movdqa	.LC35(%rip), %xmm0
	movups	%xmm0, 20151(%rsp)
	movdqa	.LC36(%rip), %xmm0
	movups	%xmm0, 20167(%rsp)
	movdqa	.LC37(%rip), %xmm0
	movups	%xmm0, 20183(%rsp)
	movdqa	.LC38(%rip), %xmm0
	movups	%xmm0, 20199(%rsp)
	movdqa	.LC39(%rip), %xmm0
	movups	%xmm0, 20215(%rsp)
.LBE205:
.LBE240:
.LBB241:
.LBB219:
	call	sprintf@PLT
.LVL85:
	.loc 2 36 34 view .LVU337
.LBE219:
.LBE241:
.LBB242:
.LBB243:
	movl	$89, %r8d
	movl	$1, %esi
	leaq	.LC12(%rip), %rcx
.LBE243:
.LBE242:
	.loc 1 74 8 view .LVU338
	leal	214(%rax), %edi
.LBB246:
.LBB220:
	.loc 2 36 34 view .LVU339
	movl	%eax, %ebx
.LVL86:
	.loc 2 36 34 view .LVU340
.LBE220:
.LBE246:
	.loc 1 75 2 is_stmt 1 view .LVU341
.LBB247:
.LBI242:
	.loc 2 34 28 view .LVU342
.LBB244:
	.loc 2 36 3 view .LVU343
	.loc 2 36 34 is_stmt 0 view .LVU344
	movq	$-1, %rdx
	xorl	%eax, %eax
.LVL87:
	.loc 2 36 34 view .LVU345
.LBE244:
.LBE247:
	.loc 1 75 28 view .LVU346
	movslq	%edi, %rdi
	.loc 1 75 17 view .LVU347
	addq	%rbp, %rdi
.LVL88:
.LBB248:
.LBB245:
	.loc 2 36 34 view .LVU348
	call	__sprintf_chk@PLT
.LVL89:
	.loc 2 36 34 view .LVU349
.LBE245:
.LBE248:
	.loc 1 76 2 is_stmt 1 view .LVU350
.LBB249:
.LBI249:
	.loc 2 34 28 view .LVU351
.LBB250:
	.loc 2 36 3 view .LVU352
.LBE250:
.LBE249:
	.loc 1 75 8 is_stmt 0 view .LVU353
	leal	243(%rbx), %eax
.LVL90:
.LBB256:
.LBB257:
	.loc 2 36 34 view .LVU354
	movl	$2619, %esi
.LBE257:
.LBE256:
.LBB263:
.LBB251:
	movdqa	.LC40(%rip), %xmm0
.LBE251:
.LBE263:
	.loc 1 76 28 view .LVU355
	cltq
	.loc 1 77 8 view .LVU356
	leal	316(%rbx), %edi
.LBB264:
.LBB252:
	.loc 2 36 34 view .LVU357
	movabsq	$2879799083494245, %rcx
.LBE252:
.LBE264:
.LBB265:
.LBB266:
	movq	$-1, %rdx
.LBE266:
.LBE265:
	.loc 1 76 17 view .LVU358
	addq	%rbp, %rax
.LVL91:
	.loc 1 78 28 view .LVU359
	movslq	%edi, %rdi
.LBB271:
.LBB253:
	.loc 2 36 34 view .LVU360
	movups	%xmm0, (%rax)
	movdqa	.LC41(%rip), %xmm0
.LBE253:
.LBE271:
	.loc 1 78 17 view .LVU361
	addq	%rbp, %rdi
.LBB272:
.LBB254:
	.loc 2 36 34 view .LVU362
	movq	%rcx, 32(%rax)
.LVL92:
	.loc 2 36 34 view .LVU363
.LBE254:
.LBE272:
	.loc 1 77 2 is_stmt 1 view .LVU364
.LBB273:
.LBI256:
	.loc 2 34 28 view .LVU365
.LBB258:
	.loc 2 36 3 view .LVU366
.LBE258:
.LBE273:
.LBB274:
.LBB267:
	.loc 2 36 34 is_stmt 0 view .LVU367
	leaq	.LC13(%rip), %rcx
.LBE267:
.LBE274:
.LBB275:
.LBB255:
	movups	%xmm0, 16(%rax)
.LBE255:
.LBE275:
	.loc 1 76 8 view .LVU368
	leal	282(%rbx), %eax
.LVL93:
.LBB276:
.LBB259:
	.loc 2 36 34 view .LVU369
	movdqa	.LC42(%rip), %xmm0
.LBE259:
.LBE276:
	.loc 1 77 28 view .LVU370
	cltq
	.loc 1 77 17 view .LVU371
	addq	%rbp, %rax
.LVL94:
.LBB277:
.LBB260:
	.loc 2 36 34 view .LVU372
	movw	%si, 32(%rax)
.LBE260:
.LBE277:
.LBB278:
.LBB268:
	movl	$1, %esi
.LBE268:
.LBE278:
.LBB279:
.LBB261:
	movups	%xmm0, (%rax)
	movdqa	.LC43(%rip), %xmm0
	movb	$0, 34(%rax)
.LVL95:
	.loc 2 36 34 view .LVU373
.LBE261:
.LBE279:
	.loc 1 78 2 is_stmt 1 view .LVU374
.LBB280:
.LBI265:
	.loc 2 34 28 view .LVU375
.LBB269:
	.loc 2 36 3 view .LVU376
.LBE269:
.LBE280:
.LBB281:
.LBB262:
	.loc 2 36 34 is_stmt 0 view .LVU377
	movups	%xmm0, 16(%rax)
.LBE262:
.LBE281:
.LBB282:
.LBB270:
	xorl	%eax, %eax
	call	__sprintf_chk@PLT
.LVL96:
	.loc 2 36 34 view .LVU378
.LBE270:
.LBE282:
	.loc 1 79 2 is_stmt 1 view .LVU379
.LBB283:
.LBI283:
	.loc 2 34 28 view .LVU380
.LBB284:
	.loc 2 36 3 view .LVU381
.LBE284:
.LBE283:
	.loc 1 78 8 is_stmt 0 view .LVU382
	leal	387(%rbx), %eax
.LVL97:
.LBB289:
.LBB285:
	.loc 2 36 34 view .LVU383
	movl	$10, %edi
.LBE285:
.LBE289:
.LBB290:
.LBB291:
	.loc 2 107 23 view .LVU384
	movq	%rbp, %rdx
.LBE291:
.LBE290:
	.loc 1 79 28 view .LVU385
	cltq
.LBB296:
.LBB297:
	.loc 2 36 34 view .LVU386
	movl	$10, %r8d
.LBE297:
.LBE296:
.LBB300:
.LBB286:
	movabsq	$2336931105441411593, %rcx
.LBE286:
.LBE300:
	.loc 1 79 17 view .LVU387
	addq	%rbp, %rax
.LVL98:
.LBB301:
.LBB292:
	.loc 2 107 23 view .LVU388
	leaq	.LC11(%rip), %rsi
.LBE292:
.LBE301:
.LBB302:
.LBB287:
	.loc 2 36 34 view .LVU389
	movq	%rcx, (%rax)
	movw	%di, 12(%rax)
.LVL99:
	.loc 2 36 34 view .LVU390
.LBE287:
.LBE302:
	.loc 1 80 2 is_stmt 1 view .LVU391
.LBB303:
.LBI296:
	.loc 2 34 28 view .LVU392
.LBB298:
	.loc 2 36 3 view .LVU393
.LBE298:
.LBE303:
.LBB304:
.LBB293:
	.loc 2 107 23 is_stmt 0 view .LVU394
	movl	$1, %edi
.LBE293:
.LBE304:
.LBB305:
.LBB288:
	.loc 2 36 34 view .LVU395
	movl	$2097822512, 8(%rax)
.LBE288:
.LBE305:
	.loc 1 79 8 view .LVU396
	leal	400(%rbx), %eax
.LVL100:
	.loc 1 80 8 view .LVU397
	addl	$401, %ebx
.LVL101:
	.loc 1 80 28 view .LVU398
	cltq
	.loc 1 81 20 view .LVU399
	movslq	%ebx, %r12
.LVL102:
.LBB306:
.LBB299:
	.loc 2 36 34 view .LVU400
	movw	%r8w, 0(%rbp,%rax)
.LVL103:
	.loc 2 36 34 view .LVU401
.LBE299:
.LBE306:
	.loc 1 81 2 is_stmt 1 view .LVU402
.LBB307:
.LBB294:
	.loc 2 107 23 is_stmt 0 view .LVU403
	xorl	%eax, %eax
.LBE294:
.LBE307:
	.loc 1 81 20 view .LVU404
	movb	$0, 20032(%rsp,%r12)
	.loc 1 82 2 is_stmt 1 view .LVU405
.LVL104:
.LBB308:
.LBI290:
	.loc 2 105 1 view .LVU406
.LBB295:
	.loc 2 107 3 view .LVU407
	.loc 2 107 23 is_stmt 0 view .LVU408
	call	__printf_chk@PLT
.LVL105:
	.loc 2 107 23 view .LVU409
.LBE295:
.LBE308:
	.loc 1 84 2 is_stmt 1 view .LVU410
	.loc 1 84 18 is_stmt 0 view .LVU411
	leaq	.LC14(%rip), %rsi
	leaq	.LC15(%rip), %rdi
	call	fopen@PLT
.LVL106:
	movq	%rax, %r13
.LVL107:
	.loc 1 85 2 is_stmt 1 view .LVU412
	testq	%rax, %rax
	je	.L31
	.loc 1 86 3 view .LVU413
	.loc 1 86 9 is_stmt 0 view .LVU414
	movq	%rbp, %rdi
	movq	%rax, %rcx
	movq	%r12, %rdx
	movl	$1, %esi
	call	fwrite@PLT
.LVL108:
	.loc 1 87 3 is_stmt 1 view .LVU415
	.loc 1 87 9 is_stmt 0 view .LVU416
	movq	%r13, %rdi
	call	fclose@PLT
.LVL109:
.L23:
	.loc 1 91 1 view .LVU417
	movq	122440(%rsp), %rax
	xorq	%fs:40, %rax
	jne	.L41
	addq	$122456, %rsp
	.cfi_remember_state
	.cfi_def_cfa_offset 56
	popq	%rbx
	.cfi_def_cfa_offset 48
.LVL110:
	.loc 1 91 1 view .LVU418
	popq	%rbp
	.cfi_def_cfa_offset 40
	popq	%r12
	.cfi_def_cfa_offset 32
.LVL111:
	.loc 1 91 1 view .LVU419
	popq	%r13
	.cfi_def_cfa_offset 24
.LVL112:
	.loc 1 91 1 view .LVU420
	popq	%r14
	.cfi_def_cfa_offset 16
	popq	%r15
	.cfi_def_cfa_offset 8
	ret
.LVL113:
.L31:
	.cfi_restore_state
	.loc 1 89 3 is_stmt 1 view .LVU421
	.loc 1 89 9 is_stmt 0 view .LVU422
	leaq	.LC16(%rip), %rdi
	call	perror@PLT
.LVL114:
	.loc 1 91 1 view .LVU423
	jmp	.L23
.L41:
	call	__stack_chk_fail@PLT
.LVL115:
	.cfi_endproc
.LFE313:
	.size	_Z12creat_decodev, .-_Z12creat_decodev
	.section	.rodata.str1.1
.LC44:
	.string	"\347\231\276\345\272\246\347\247\222\344\274\240\351\223\276\346\216\245\357\274\232"
	.text
	.p2align 4
	.globl	_Z5testtv
	.type	_Z5testtv, @function
_Z5testtv:
.LFB316:
	.loc 1 111 12 is_stmt 1 view -0
	.cfi_startproc
	endbr64
	pushq	%rbp
	.cfi_def_cfa_offset 16
	.cfi_offset 6, -16
	pushq	%rbx
	.cfi_def_cfa_offset 24
	.cfi_offset 3, -24
	subq	$88, %rsp
	.cfi_def_cfa_offset 112
	.loc 1 111 12 is_stmt 0 view .LVU425
	movq	%fs:40, %rax
	movq	%rax, 72(%rsp)
	xorl	%eax, %eax
	.loc 1 113 2 is_stmt 1 view .LVU426
	.loc 1 119 9 is_stmt 0 view .LVU427
	movq	%rsp, %rbx
	leaq	65(%rsp), %rbp
	.loc 1 113 14 view .LVU428
	call	_Z12creat_decodev@PLT
.LVL116:
	.loc 1 115 2 is_stmt 1 view .LVU429
	.loc 1 115 16 is_stmt 0 view .LVU430
	movdqa	.LC45(%rip), %xmm0
	.loc 1 119 9 view .LVU431
	movl	$89, %edx
	movq	%rbx, %rdi
	movl	$65, %esi
	.loc 1 115 16 view .LVU432
	movb	$56, 64(%rsp)
	.loc 1 118 2 is_stmt 1 view .LVU433
.LVL117:
	.loc 1 119 2 view .LVU434
	.loc 1 115 16 is_stmt 0 view .LVU435
	movaps	%xmm0, (%rsp)
	movdqa	.LC46(%rip), %xmm0
	movaps	%xmm0, 16(%rsp)
	movdqa	.LC47(%rip), %xmm0
	movaps	%xmm0, 32(%rsp)
	movdqa	.LC48(%rip), %xmm0
	movaps	%xmm0, 48(%rsp)
	.loc 1 119 9 view .LVU436
	call	_Z7decryptPhjh@PLT
.LVL118:
	.loc 1 120 2 is_stmt 1 view .LVU437
.LBB309:
.LBI309:
	.loc 2 105 1 view .LVU438
.LBB310:
	.loc 2 107 3 view .LVU439
	.loc 2 107 23 is_stmt 0 view .LVU440
	leaq	.LC44(%rip), %rsi
	movl	$1, %edi
	xorl	%eax, %eax
	call	__printf_chk@PLT
.LVL119:
	.loc 2 107 23 view .LVU441
.LBE310:
.LBE309:
.LBB311:
	.loc 1 121 15 is_stmt 1 view .LVU442
	.p2align 4,,10
	.p2align 3
.L43:
	.loc 1 121 35 discriminator 3 view .LVU443
.LBB312:
.LBI312:
	.loc 2 105 1 discriminator 3 view .LVU444
.LBB313:
	.loc 2 107 3 discriminator 3 view .LVU445
.LBE313:
.LBE312:
	.loc 1 121 41 is_stmt 0 discriminator 3 view .LVU446
	movzbl	(%rbx), %edi
	addq	$1, %rbx
.LVL120:
.LBB315:
.LBB314:
	.loc 2 107 23 discriminator 3 view .LVU447
	call	putchar@PLT
.LVL121:
	.loc 2 107 23 discriminator 3 view .LVU448
.LBE314:
.LBE315:
	.loc 1 121 2 is_stmt 1 discriminator 3 view .LVU449
	.loc 1 121 15 discriminator 3 view .LVU450
	cmpq	%rbp, %rbx
	jne	.L43
.LBE311:
	.loc 1 121 58 view .LVU451
.LVL122:
.LBB316:
.LBI316:
	.loc 2 105 1 view .LVU452
.LBB317:
	.loc 2 107 3 view .LVU453
	.loc 2 107 23 is_stmt 0 view .LVU454
	movl	$10, %edi
	call	putchar@PLT
.LVL123:
	.loc 2 107 23 view .LVU455
.LBE317:
.LBE316:
	.loc 1 122 2 is_stmt 1 view .LVU456
	.loc 1 123 1 is_stmt 0 view .LVU457
	movq	72(%rsp), %rax
	xorq	%fs:40, %rax
	jne	.L47
	addq	$88, %rsp
	.cfi_remember_state
	.cfi_def_cfa_offset 24
	xorl	%eax, %eax
	popq	%rbx
	.cfi_def_cfa_offset 16
	popq	%rbp
	.cfi_def_cfa_offset 8
	ret
.L47:
	.cfi_restore_state
	call	__stack_chk_fail@PLT
.LVL124:
	.cfi_endproc
.LFE316:
	.size	_Z5testtv, .-_Z5testtv
	.section	.rodata.str1.1
.LC49:
	.string	"main"
.LC50:
	.string	"main.cpp"
.LC51:
	.string	"%x"
	.section	.rodata.str1.8
	.align 8
.LC52:
	.string	"sssssssssssssssssssssssssssssssssssssss,%d\n"
	.section	.rodata.str1.1
.LC53:
	.string	"mem_peruser=%d%%\n"
.LC55:
	.string	"cos(111)=%lf\n"
	.section	.text.startup,"ax",@progbits
	.p2align 4
	.globl	main
	.type	main, @function
main:
.LFB317:
	.loc 1 126 1 is_stmt 1 view -0
	.cfi_startproc
	endbr64
	pushq	%r12
	.cfi_def_cfa_offset 16
	.cfi_offset 12, -16
	pushq	%rbp
	.cfi_def_cfa_offset 24
	.cfi_offset 6, -24
	pushq	%rbx
	.cfi_def_cfa_offset 32
	.cfi_offset 3, -32
	subq	$1040, %rsp
	.cfi_def_cfa_offset 1072
	.loc 1 126 1 is_stmt 0 view .LVU459
	movq	%fs:40, %rax
	movq	%rax, 1032(%rsp)
	xorl	%eax, %eax
	.loc 1 140 2 is_stmt 1 view .LVU460
	.loc 1 140 37 is_stmt 0 view .LVU461
	call	init_array_none@PLT
.LVL125:
	.loc 1 141 2 is_stmt 1 view .LVU462
	testq	%rax, %rax
	je	.L49
	movq	%rax, %rbp
	xorl	%ebx, %ebx
.LVL126:
	.p2align 4,,10
	.p2align 3
.L50:
	.loc 1 150 3 discriminator 2 view .LVU463
	.loc 1 150 21 is_stmt 0 discriminator 2 view .LVU464
	movq	%rbx, %rsi
	addq	$1, %rbx
.LVL127:
	.loc 1 150 21 discriminator 2 view .LVU465
	movq	%rbp, %rdi
	call	*24(%rbp)
.LVL128:
	.loc 1 146 2 is_stmt 1 discriminator 2 view .LVU466
	.loc 1 146 11 discriminator 2 view .LVU467
	cmpq	$200000, %rbx
	jne	.L50
	.loc 1 154 2 view .LVU468
	.loc 1 154 18 is_stmt 0 view .LVU469
	movl	$5, %edx
	movl	$3, %esi
	movq	%rbp, %rdi
.LBB318:
.LBB319:
.LBB320:
	.loc 2 67 35 view .LVU470
	movq	%rsp, %r12
.LBE320:
.LBE319:
.LBE318:
	.loc 1 154 18 view .LVU471
	call	*136(%rbp)
.LVL129:
	.loc 1 155 2 is_stmt 1 view .LVU472
	.loc 1 155 7 view .LVU473
.LBB331:
	.loc 1 155 14 view .LVU474
	.loc 1 155 48 view .LVU475
.LBB326:
.LBI319:
	.loc 2 64 28 view .LVU476
.LBB321:
	.loc 2 67 3 view .LVU477
.LBE321:
.LBE326:
	.loc 1 155 189 is_stmt 0 view .LVU478
	movl	$155, %ecx
	movq	%r12, %rsi
	xorl	%edi, %edi
.LBB327:
.LBB322:
	.loc 2 67 35 view .LVU479
	movdqa	.LC56(%rip), %xmm0
.LBE322:
.LBE327:
	.loc 1 155 189 view .LVU480
	leaq	.LC49(%rip), %r8
.LBB328:
.LBB323:
	.loc 2 67 35 view .LVU481
	movabsq	$2340781685918212234, %rax
.LBE323:
.LBE328:
	.loc 1 155 189 view .LVU482
	leaq	.LC50(%rip), %rdx
.LBB329:
.LBB324:
	.loc 2 67 35 view .LVU483
	movq	%rax, 32(%rsp)
	movl	$65, %eax
	movaps	%xmm0, (%rsp)
	movdqa	.LC57(%rip), %xmm0
	movw	%ax, 44(%rsp)
.LVL130:
	.loc 2 67 35 view .LVU484
.LBE324:
.LBE329:
	.loc 1 155 180 is_stmt 1 view .LVU485
.LBB330:
.LBB325:
	.loc 2 67 35 is_stmt 0 view .LVU486
	movaps	%xmm0, 16(%rsp)
	movl	$541139009, 40(%rsp)
.LBE325:
.LBE330:
	.loc 1 155 189 view .LVU487
	call	write_log@PLT
.LVL131:
.LBE331:
	.loc 1 156 2 is_stmt 1 view .LVU488
	.loc 1 156 7 view .LVU489
.LBB332:
	.loc 1 156 14 view .LVU490
	.loc 1 156 48 view .LVU491
.LBB333:
.LBI333:
	.loc 2 64 28 view .LVU492
.LBB334:
	.loc 2 67 3 view .LVU493
	.loc 2 67 35 is_stmt 0 view .LVU494
	movl	$21834, %r9d
	movq	%r12, %rdi
	xorl	%eax, %eax
	movl	$1024, %ecx
	movl	$1, %edx
	movl	$1024, %esi
	leaq	.LC51(%rip), %r8
	call	__snprintf_chk@PLT
.LVL132:
	.loc 2 67 35 view .LVU495
.LBE334:
.LBE333:
	.loc 1 156 100 is_stmt 1 view .LVU496
	.loc 1 156 109 is_stmt 0 view .LVU497
	movl	$156, %ecx
	movq	%r12, %rsi
	xorl	%edi, %edi
	leaq	.LC49(%rip), %r8
	leaq	.LC50(%rip), %rdx
	call	write_log@PLT
.LVL133:
.LBE332:
	.loc 1 159 2 is_stmt 1 view .LVU498
	.loc 1 159 7 view .LVU499
.LBB335:
	.loc 1 159 14 view .LVU500
	.loc 1 159 48 view .LVU501
.LBB336:
.LBI336:
	.loc 2 64 28 view .LVU502
.LBB337:
	.loc 2 67 3 view .LVU503
	.loc 2 67 35 is_stmt 0 view .LVU504
	movl	0(%rbp), %r9d
	movl	$1024, %ecx
	xorl	%eax, %eax
	leaq	.LC52(%rip), %r8
	movl	$1, %edx
	movl	$1024, %esi
	movq	%r12, %rdi
	call	__snprintf_chk@PLT
.LVL134:
	.loc 2 67 35 view .LVU505
.LBE337:
.LBE336:
	.loc 1 159 151 is_stmt 1 view .LVU506
	.loc 1 159 160 is_stmt 0 view .LVU507
	movl	$159, %ecx
	movq	%r12, %rsi
	xorl	%edi, %edi
	leaq	.LC49(%rip), %r8
	leaq	.LC50(%rip), %rdx
	call	write_log@PLT
.LVL135:
.LBE335:
	.loc 1 160 2 is_stmt 1 view .LVU508
	.loc 1 160 11 view .LVU509
	.loc 1 163 2 view .LVU510
	.loc 1 163 7 view .LVU511
.LBB338:
	.loc 1 163 14 view .LVU512
	.loc 1 163 48 view .LVU513
	.loc 1 163 118 is_stmt 0 view .LVU514
	call	mem_peruser@PLT
.LVL136:
.LBB339:
.LBI339:
	.loc 2 64 28 is_stmt 1 view .LVU515
.LBB340:
	.loc 2 67 3 view .LVU516
	.loc 2 67 35 is_stmt 0 view .LVU517
	leaq	.LC53(%rip), %r8
	movl	$1024, %ecx
	movq	%r12, %rdi
	movzbl	%al, %r9d
	movl	$1, %edx
	movl	$1024, %esi
	xorl	%eax, %eax
	call	__snprintf_chk@PLT
.LVL137:
	.loc 2 67 35 view .LVU518
.LBE340:
.LBE339:
	.loc 1 163 123 is_stmt 1 view .LVU519
	.loc 1 163 132 is_stmt 0 view .LVU520
	movl	$163, %ecx
	movq	%r12, %rsi
	xorl	%edi, %edi
	leaq	.LC49(%rip), %r8
	leaq	.LC50(%rip), %rdx
	call	write_log@PLT
.LVL138:
.LBE338:
	.loc 1 164 2 is_stmt 1 view .LVU521
	.loc 1 164 21 is_stmt 0 view .LVU522
	movq	%rbp, %rdi
	call	*88(%rbp)
.LVL139:
	.loc 1 165 2 is_stmt 1 view .LVU523
	.loc 1 165 7 view .LVU524
.LBB341:
	.loc 1 165 14 view .LVU525
	.loc 1 165 48 view .LVU526
	.loc 1 165 118 is_stmt 0 view .LVU527
	call	mem_peruser@PLT
.LVL140:
.LBB342:
.LBI342:
	.loc 2 64 28 is_stmt 1 view .LVU528
.LBB343:
	.loc 2 67 3 view .LVU529
	.loc 2 67 35 is_stmt 0 view .LVU530
	leaq	.LC53(%rip), %r8
	movl	$1024, %ecx
	movq	%r12, %rdi
	movzbl	%al, %r9d
	movl	$1, %edx
	movl	$1024, %esi
	xorl	%eax, %eax
	call	__snprintf_chk@PLT
.LVL141:
	.loc 2 67 35 view .LVU531
.LBE343:
.LBE342:
	.loc 1 165 123 is_stmt 1 view .LVU532
	.loc 1 165 132 is_stmt 0 view .LVU533
	movl	$165, %ecx
	movq	%r12, %rsi
	xorl	%edi, %edi
	leaq	.LC49(%rip), %r8
	leaq	.LC50(%rip), %rdx
	call	write_log@PLT
.LVL142:
.LBE341:
	.loc 1 166 2 is_stmt 1 view .LVU534
	.loc 1 166 7 view .LVU535
.LBB344:
	.loc 1 166 14 view .LVU536
	.loc 1 166 48 view .LVU537
.LBB345:
.LBI345:
	.loc 2 64 28 view .LVU538
.LBB346:
	.loc 2 67 3 view .LVU539
	.loc 2 67 35 is_stmt 0 view .LVU540
	movsd	.LC54(%rip), %xmm0
	movl	$1024, %ecx
	movq	%r12, %rdi
	movl	$1, %edx
	movl	$1024, %esi
	movl	$1, %eax
	leaq	.LC55(%rip), %r8
	call	__snprintf_chk@PLT
.LVL143:
	.loc 2 67 35 view .LVU541
.LBE346:
.LBE345:
	.loc 1 166 114 is_stmt 1 view .LVU542
	.loc 1 166 123 is_stmt 0 view .LVU543
	movl	$166, %ecx
	movq	%r12, %rsi
	xorl	%edi, %edi
	leaq	.LC49(%rip), %r8
	leaq	.LC50(%rip), %rdx
	call	write_log@PLT
.LVL144:
.LBE344:
	.loc 1 168 2 is_stmt 1 view .LVU544
	.loc 1 168 10 is_stmt 0 view .LVU545
	call	fft_test@PLT
.LVL145:
	.loc 1 169 2 is_stmt 1 view .LVU546
	.loc 1 169 7 is_stmt 0 view .LVU547
	call	_Z5testtv@PLT
.LVL146:
	.loc 1 223 2 is_stmt 1 view .LVU548
.L49:
	.loc 1 224 1 is_stmt 0 view .LVU549
	movq	1032(%rsp), %rax
	xorq	%fs:40, %rax
	jne	.L57
	addq	$1040, %rsp
	.cfi_remember_state
	.cfi_def_cfa_offset 32
	xorl	%eax, %eax
	popq	%rbx
	.cfi_def_cfa_offset 24
	popq	%rbp
	.cfi_def_cfa_offset 16
	popq	%r12
	.cfi_def_cfa_offset 8
	ret
.L57:
	.cfi_restore_state
	call	__stack_chk_fail@PLT
.LVL147:
	.cfi_endproc
.LFE317:
	.size	main, .-main
	.section	.rodata.cst16,"aM",@progbits,16
	.align 16
.LC17:
	.quad	7003431917835007543
	.quad	3631419052606370096
	.align 16
.LC18:
	.quad	7004330189491679844
	.quad	7005404437350200377
	.align 16
.LC19:
	.quad	3977299915041157411
	.quad	7957994029737653040
	.align 16
.LC20:
	.quad	3486177582724361839
	.quad	3846978315083659568
	.align 16
.LC21:
	.quad	3977021940446093666
	.quad	7089622824039560759
	.align 16
.LC22:
	.quad	3977561585923286576
	.quad	2536150250485461809
	.align 16
.LC23:
	.quad	8102082860861651304
	.quad	3342912750797221441
	.align 16
.LC24:
	.quad	3775485869969537591
	.quad	7003997040975362145
	.align 16
.LC25:
	.quad	7377802609016649060
	.quad	3833796270886369585
	.align 16
.LC26:
	.quad	3472334901669868600
	.quad	7021725782336697123
	.align 16
.LC27:
	.quad	7234309766870429301
	.quad	7954799992452440864
	.align 16
.LC28:
	.quad	7306093603886885155
	.quad	3346008928330923040
	.align 16
.LC29:
	.quad	7810207576629067368
	.quad	8247343519700968565
	.align 16
.LC30:
	.quad	7162240872689004406
	.quad	8317714378412554610
	.align 16
.LC31:
	.quad	7521891418209412969
	.quad	8439794561947038305
	.align 16
.LC32:
	.quad	2334102031740531566
	.quad	7312272888176078441
	.align 16
.LC33:
	.quad	7955443211268595756
	.quad	2338038257526269029
	.align 16
.LC34:
	.quad	2308793042556511595
	.quad	6782554515315892256
	.align 16
.LC35:
	.quad	737254640435863613
	.quad	2914514393278455840
	.align 16
.LC36:
	.quad	7234309766870429301
	.quad	3476050075513153824
	.align 16
.LC37:
	.quad	7312272888645099579
	.quad	2308703024369442875
	.align 16
.LC38:
	.quad	2314885437855899680
	.quad	7591784880143343648
	.align 16
.LC39:
	.quad	8747515637449760861
	.quad	755795634818124347
	.align 16
.LC40:
	.quad	8390339637992055817
	.quad	3199073539888932136
	.align 16
.LC41:
	.quad	7289188625529071987
	.quad	7218189818221519726
	.align 16
.LC42:
	.quad	2911142226705936393
	.quad	-1754509508906195166
	.align 16
.LC43:
	.quad	-4714167508353641817
	.quad	2964101641028341478
	.align 16
.LC45:
	.quad	7160776396161640298
	.quad	7740398467719192887
	.align 16
.LC46:
	.quad	3919318278109618790
	.quad	3991932431206332001
	.align 16
.LC47:
	.quad	7233742436015563376
	.quad	1158041079912362082
	.align 16
.LC48:
	.quad	9034921660127448084
	.quad	2536227423601589600
	.section	.rodata.cst8,"aM",@progbits,8
	.align 8
.LC54:
	.long	3538985977
	.long	-1075833641
	.section	.rodata.cst16
	.align 16
.LC56:
	.quad	-7881316800119267344
	.quad	2352459992083996822
	.align 16
.LC57:
	.quad	2352459992086715878
	.quad	-7645669012799152004
	.text
.Letext0:
	.file 4 "/usr/lib/gcc/x86_64-linux-gnu/9/include/stddef.h"
	.file 5 "/usr/include/x86_64-linux-gnu/bits/types.h"
	.file 6 "/usr/include/x86_64-linux-gnu/bits/types/struct_FILE.h"
	.file 7 "/usr/include/x86_64-linux-gnu/bits/types/FILE.h"
	.file 8 "/usr/include/stdio.h"
	.file 9 "/usr/include/x86_64-linux-gnu/bits/sys_errlist.h"
	.file 10 "array/mArray_none.h"
	.file 11 "/usr/include/c++/9/cmath"
	.file 12 "/usr/include/c++/9/bits/std_abs.h"
	.file 13 "/usr/include/x86_64-linux-gnu/c++/9/bits/c++config.h"
	.file 14 "/usr/include/math.h"
	.file 15 "/usr/include/c++/9/math.h"
	.file 16 "/usr/include/x86_64-linux-gnu/bits/mathcalls.h"
	.file 17 "/usr/include/stdlib.h"
	.file 18 "log/log_info.h"
	.file 19 "mem/mem_management.h"
	.file 20 "fft/fft.h"
	.file 21 "<built-in>"
	.section	.note.GNU-stack,"",@progbits
	.section	.note.gnu.property,"a"
	.align 8
	.long	 1f - 0f
	.long	 4f - 1f
	.long	 5
0:
	.string	 "GNU"
1:
	.align 8
	.long	 0xc0000002
	.long	 3f - 2f
2:
	.long	 0x3
3:
	.align 8
4:
