
obj/mArray.o:     file format elf64-x86-64


Disassembly of section .text:

0000000000000000 <array_get_node_at>:
   0:	f3 0f 1e fa          	endbr64 
   4:	48 85 ff             	test   %rdi,%rdi
   7:	74 17                	je     20 <array_get_node_at+0x20>
   9:	85 f6                	test   %esi,%esi
   b:	78 13                	js     20 <array_get_node_at+0x20>
   d:	39 37                	cmp    %esi,(%rdi)
   f:	7e 0f                	jle    20 <array_get_node_at+0x20>
  11:	48 8b 47 08          	mov    0x8(%rdi),%rax
  15:	48 63 f6             	movslq %esi,%rsi
  18:	48 8d 04 f0          	lea    (%rax,%rsi,8),%rax
  1c:	c3                   	retq   
  1d:	0f 1f 00             	nopl   (%rax)
  20:	31 c0                	xor    %eax,%eax
  22:	c3                   	retq   
  23:	66 66 2e 0f 1f 84 00 	data16 nopw %cs:0x0(%rax,%rax,1)
  2a:	00 00 00 00 
  2e:	66 90                	xchg   %ax,%ax

0000000000000030 <array_swap_node>:
  30:	f3 0f 1e fa          	endbr64 
  34:	48 85 ff             	test   %rdi,%rdi
  37:	74 37                	je     70 <array_swap_node+0x40>
  39:	85 f6                	test   %esi,%esi
  3b:	78 33                	js     70 <array_swap_node+0x40>
  3d:	39 d6                	cmp    %edx,%esi
  3f:	89 d0                	mov    %edx,%eax
  41:	0f 4d c6             	cmovge %esi,%eax
  44:	39 07                	cmp    %eax,(%rdi)
  46:	7e 28                	jle    70 <array_swap_node+0x40>
  48:	85 d2                	test   %edx,%edx
  4a:	78 24                	js     70 <array_swap_node+0x40>
  4c:	48 8b 47 08          	mov    0x8(%rdi),%rax
  50:	48 63 f6             	movslq %esi,%rsi
  53:	48 63 d2             	movslq %edx,%rdx
  56:	48 8d 0c f0          	lea    (%rax,%rsi,8),%rcx
  5a:	48 8d 04 d0          	lea    (%rax,%rdx,8),%rax
  5e:	48 8b 10             	mov    (%rax),%rdx
  61:	48 8b 31             	mov    (%rcx),%rsi
  64:	48 89 11             	mov    %rdx,(%rcx)
  67:	48 89 30             	mov    %rsi,(%rax)
  6a:	31 c0                	xor    %eax,%eax
  6c:	c3                   	retq   
  6d:	0f 1f 00             	nopl   (%rax)
  70:	b8 ff ff ff ff       	mov    $0xffffffff,%eax
  75:	c3                   	retq   
  76:	66 2e 0f 1f 84 00 00 	nopw   %cs:0x0(%rax,%rax,1)
  7d:	00 00 00 

0000000000000080 <memory_extension>:
  80:	41 54                	push   %r12
  82:	55                   	push   %rbp
  83:	53                   	push   %rbx
  84:	48 81 ec 10 04 00 00 	sub    $0x410,%rsp
  8b:	64 48 8b 04 25 28 00 	mov    %fs:0x28,%rax
  92:	00 00 
  94:	48 89 84 24 08 04 00 	mov    %rax,0x408(%rsp)
  9b:	00 
  9c:	31 c0                	xor    %eax,%eax
  9e:	48 85 ff             	test   %rdi,%rdi
  a1:	0f 84 94 00 00 00    	je     13b <memory_extension+0xbb>
  a7:	8b 77 04             	mov    0x4(%rdi),%esi
  aa:	8b 07                	mov    (%rdi),%eax
  ac:	48 89 fb             	mov    %rdi,%rbx
  af:	8d 56 f6             	lea    -0xa(%rsi),%edx
  b2:	39 d0                	cmp    %edx,%eax
  b4:	7d 5a                	jge    110 <memory_extension+0x90>
  b6:	05 09 0c 00 00       	add    $0xc09,%eax
  bb:	45 31 e4             	xor    %r12d,%r12d
  be:	39 c6                	cmp    %eax,%esi
  c0:	7f 26                	jg     e8 <memory_extension+0x68>
  c2:	48 8b 84 24 08 04 00 	mov    0x408(%rsp),%rax
  c9:	00 
  ca:	64 48 33 04 25 28 00 	xor    %fs:0x28,%rax
  d1:	00 00 
  d3:	75 71                	jne    146 <memory_extension+0xc6>
  d5:	48 81 c4 10 04 00 00 	add    $0x410,%rsp
  dc:	44 89 e0             	mov    %r12d,%eax
  df:	5b                   	pop    %rbx
  e0:	5d                   	pop    %rbp
  e1:	41 5c                	pop    %r12
  e3:	c3                   	retq   
  e4:	0f 1f 40 00          	nopl   0x0(%rax)
  e8:	81 ee 00 04 00 00    	sub    $0x400,%esi
  ee:	48 8b 7f 08          	mov    0x8(%rdi),%rdi
  f2:	48 63 f6             	movslq %esi,%rsi
  f5:	48 c1 e6 03          	shl    $0x3,%rsi
  f9:	e8 00 00 00 00       	callq  fe <memory_extension+0x7e>
  fe:	48 85 c0             	test   %rax,%rax
 101:	74 48                	je     14b <memory_extension+0xcb>
 103:	81 6b 04 00 04 00 00 	subl   $0x400,0x4(%rbx)
 10a:	48 89 43 08          	mov    %rax,0x8(%rbx)
 10e:	eb b2                	jmp    c2 <memory_extension+0x42>
 110:	81 c6 00 04 00 00    	add    $0x400,%esi
 116:	48 8b 7f 08          	mov    0x8(%rdi),%rdi
 11a:	48 63 f6             	movslq %esi,%rsi
 11d:	48 c1 e6 03          	shl    $0x3,%rsi
 121:	e8 00 00 00 00       	callq  126 <memory_extension+0xa6>
 126:	48 85 c0             	test   %rax,%rax
 129:	74 74                	je     19f <memory_extension+0x11f>
 12b:	81 43 04 00 04 00 00 	addl   $0x400,0x4(%rbx)
 132:	45 31 e4             	xor    %r12d,%r12d
 135:	48 89 43 08          	mov    %rax,0x8(%rbx)
 139:	eb 87                	jmp    c2 <memory_extension+0x42>
 13b:	41 bc ff ff ff ff    	mov    $0xffffffff,%r12d
 141:	e9 7c ff ff ff       	jmpq   c2 <memory_extension+0x42>
 146:	e8 00 00 00 00       	callq  14b <memory_extension+0xcb>
 14b:	e8 00 00 00 00       	callq  150 <memory_extension+0xd0>
 150:	48 89 e5             	mov    %rsp,%rbp
 153:	8b 38                	mov    (%rax),%edi
 155:	e8 00 00 00 00       	callq  15a <memory_extension+0xda>
 15a:	48 89 ef             	mov    %rbp,%rdi
 15d:	b9 00 04 00 00       	mov    $0x400,%ecx
 162:	4c 8d 05 00 00 00 00 	lea    0x0(%rip),%r8        # 169 <memory_extension+0xe9>
 169:	49 89 c1             	mov    %rax,%r9
 16c:	ba 01 00 00 00       	mov    $0x1,%edx
 171:	be 00 04 00 00       	mov    $0x400,%esi
 176:	31 c0                	xor    %eax,%eax
 178:	e8 00 00 00 00       	callq  17d <memory_extension+0xfd>
 17d:	b9 5c 00 00 00       	mov    $0x5c,%ecx
 182:	48 89 ee             	mov    %rbp,%rsi
 185:	31 ff                	xor    %edi,%edi
 187:	4c 8d 05 00 00 00 00 	lea    0x0(%rip),%r8        # 18e <memory_extension+0x10e>
 18e:	48 8d 15 00 00 00 00 	lea    0x0(%rip),%rdx        # 195 <memory_extension+0x115>
 195:	e8 00 00 00 00       	callq  19a <memory_extension+0x11a>
 19a:	e9 23 ff ff ff       	jmpq   c2 <memory_extension+0x42>
 19f:	e8 00 00 00 00       	callq  1a4 <memory_extension+0x124>
 1a4:	49 89 e4             	mov    %rsp,%r12
 1a7:	8b 38                	mov    (%rax),%edi
 1a9:	e8 00 00 00 00       	callq  1ae <memory_extension+0x12e>
 1ae:	4c 89 e7             	mov    %r12,%rdi
 1b1:	b9 00 04 00 00       	mov    $0x400,%ecx
 1b6:	4c 8d 05 00 00 00 00 	lea    0x0(%rip),%r8        # 1bd <memory_extension+0x13d>
 1bd:	49 89 c1             	mov    %rax,%r9
 1c0:	ba 01 00 00 00       	mov    $0x1,%edx
 1c5:	be 00 04 00 00       	mov    $0x400,%esi
 1ca:	31 c0                	xor    %eax,%eax
 1cc:	e8 00 00 00 00       	callq  1d1 <memory_extension+0x151>
 1d1:	4c 89 e6             	mov    %r12,%rsi
 1d4:	b9 54 00 00 00       	mov    $0x54,%ecx
 1d9:	31 ff                	xor    %edi,%edi
 1db:	4c 8d 05 00 00 00 00 	lea    0x0(%rip),%r8        # 1e2 <memory_extension+0x162>
 1e2:	48 8d 15 00 00 00 00 	lea    0x0(%rip),%rdx        # 1e9 <memory_extension+0x169>
 1e9:	41 83 cc ff          	or     $0xffffffff,%r12d
 1ed:	e8 00 00 00 00       	callq  1f2 <memory_extension+0x172>
 1f2:	e9 cb fe ff ff       	jmpq   c2 <memory_extension+0x42>
 1f7:	66 0f 1f 84 00 00 00 	nopw   0x0(%rax,%rax,1)
 1fe:	00 00 

0000000000000200 <array_remove_node_at>:
 200:	f3 0f 1e fa          	endbr64 
 204:	85 f6                	test   %esi,%esi
 206:	78 67                	js     26f <array_remove_node_at+0x6f>
 208:	55                   	push   %rbp
 209:	48 89 fd             	mov    %rdi,%rbp
 20c:	53                   	push   %rbx
 20d:	48 83 ec 08          	sub    $0x8,%rsp
 211:	48 85 ff             	test   %rdi,%rdi
 214:	74 4b                	je     261 <array_remove_node_at+0x61>
 216:	8b 07                	mov    (%rdi),%eax
 218:	39 f0                	cmp    %esi,%eax
 21a:	7e 45                	jle    261 <array_remove_node_at+0x61>
 21c:	8d 58 ff             	lea    -0x1(%rax),%ebx
 21f:	39 de                	cmp    %ebx,%esi
 221:	7d 28                	jge    24b <array_remove_node_at+0x4b>
 223:	29 f0                	sub    %esi,%eax
 225:	48 8b 7f 08          	mov    0x8(%rdi),%rdi
 229:	48 63 d6             	movslq %esi,%rdx
 22c:	83 e8 02             	sub    $0x2,%eax
 22f:	48 c1 e2 03          	shl    $0x3,%rdx
 233:	4c 8d 04 c5 08 00 00 	lea    0x8(,%rax,8),%r8
 23a:	00 
 23b:	48 8d 74 17 08       	lea    0x8(%rdi,%rdx,1),%rsi
 240:	48 01 d7             	add    %rdx,%rdi
 243:	4c 89 c2             	mov    %r8,%rdx
 246:	e8 00 00 00 00       	callq  24b <array_remove_node_at+0x4b>
 24b:	89 5d 00             	mov    %ebx,0x0(%rbp)
 24e:	48 89 ef             	mov    %rbp,%rdi
 251:	e8 2a fe ff ff       	callq  80 <memory_extension>
 256:	85 c0                	test   %eax,%eax
 258:	75 0e                	jne    268 <array_remove_node_at+0x68>
 25a:	48 83 c4 08          	add    $0x8,%rsp
 25e:	5b                   	pop    %rbx
 25f:	5d                   	pop    %rbp
 260:	c3                   	retq   
 261:	b8 ff ff ff ff       	mov    $0xffffffff,%eax
 266:	eb f2                	jmp    25a <array_remove_node_at+0x5a>
 268:	b8 fe ff ff ff       	mov    $0xfffffffe,%eax
 26d:	eb eb                	jmp    25a <array_remove_node_at+0x5a>
 26f:	83 c8 ff             	or     $0xffffffff,%eax
 272:	c3                   	retq   
 273:	66 66 2e 0f 1f 84 00 	data16 nopw %cs:0x0(%rax,%rax,1)
 27a:	00 00 00 00 
 27e:	66 90                	xchg   %ax,%ax

0000000000000280 <array_remove_node_at_d>:
 280:	f3 0f 1e fa          	endbr64 
 284:	48 85 ff             	test   %rdi,%rdi
 287:	0f 84 89 00 00 00    	je     316 <array_remove_node_at_d+0x96>
 28d:	41 55                	push   %r13
 28f:	41 54                	push   %r12
 291:	55                   	push   %rbp
 292:	53                   	push   %rbx
 293:	89 f3                	mov    %esi,%ebx
 295:	48 83 ec 08          	sub    $0x8,%rsp
 299:	85 f6                	test   %esi,%esi
 29b:	78 6b                	js     308 <array_remove_node_at_d+0x88>
 29d:	8b 07                	mov    (%rdi),%eax
 29f:	48 89 fd             	mov    %rdi,%rbp
 2a2:	39 f0                	cmp    %esi,%eax
 2a4:	7e 62                	jle    308 <array_remove_node_at_d+0x88>
 2a6:	48 8b 4f 08          	mov    0x8(%rdi),%rcx
 2aa:	48 63 d6             	movslq %esi,%rdx
 2ad:	4c 8d 2c d5 00 00 00 	lea    0x0(,%rdx,8),%r13
 2b4:	00 
 2b5:	48 8b 3c d1          	mov    (%rcx,%rdx,8),%rdi
 2b9:	48 85 ff             	test   %rdi,%rdi
 2bc:	74 08                	je     2c6 <array_remove_node_at_d+0x46>
 2be:	e8 00 00 00 00       	callq  2c3 <array_remove_node_at_d+0x43>
 2c3:	8b 45 00             	mov    0x0(%rbp),%eax
 2c6:	44 8d 60 ff          	lea    -0x1(%rax),%r12d
 2ca:	44 39 e3             	cmp    %r12d,%ebx
 2cd:	7d 1e                	jge    2ed <array_remove_node_at_d+0x6d>
 2cf:	48 8b 7d 08          	mov    0x8(%rbp),%rdi
 2d3:	29 d8                	sub    %ebx,%eax
 2d5:	83 e8 02             	sub    $0x2,%eax
 2d8:	4a 8d 74 2f 08       	lea    0x8(%rdi,%r13,1),%rsi
 2dd:	48 8d 14 c5 08 00 00 	lea    0x8(,%rax,8),%rdx
 2e4:	00 
 2e5:	4c 01 ef             	add    %r13,%rdi
 2e8:	e8 00 00 00 00       	callq  2ed <array_remove_node_at_d+0x6d>
 2ed:	44 89 65 00          	mov    %r12d,0x0(%rbp)
 2f1:	48 89 ef             	mov    %rbp,%rdi
 2f4:	e8 87 fd ff ff       	callq  80 <memory_extension>
 2f9:	85 c0                	test   %eax,%eax
 2fb:	75 12                	jne    30f <array_remove_node_at_d+0x8f>
 2fd:	48 83 c4 08          	add    $0x8,%rsp
 301:	5b                   	pop    %rbx
 302:	5d                   	pop    %rbp
 303:	41 5c                	pop    %r12
 305:	41 5d                	pop    %r13
 307:	c3                   	retq   
 308:	b8 ff ff ff ff       	mov    $0xffffffff,%eax
 30d:	eb ee                	jmp    2fd <array_remove_node_at_d+0x7d>
 30f:	b8 fe ff ff ff       	mov    $0xfffffffe,%eax
 314:	eb e7                	jmp    2fd <array_remove_node_at_d+0x7d>
 316:	83 c8 ff             	or     $0xffffffff,%eax
 319:	c3                   	retq   
 31a:	66 0f 1f 44 00 00    	nopw   0x0(%rax,%rax,1)

0000000000000320 <array_delete_all_node>:
 320:	f3 0f 1e fa          	endbr64 
 324:	48 85 ff             	test   %rdi,%rdi
 327:	74 0f                	je     338 <array_delete_all_node+0x18>
 329:	c7 07 00 00 00 00    	movl   $0x0,(%rdi)
 32f:	e9 4c fd ff ff       	jmpq   80 <memory_extension>
 334:	0f 1f 40 00          	nopl   0x0(%rax)
 338:	c3                   	retq   
 339:	0f 1f 80 00 00 00 00 	nopl   0x0(%rax)

0000000000000340 <array_get_node_index>:
 340:	f3 0f 1e fa          	endbr64 
 344:	48 85 ff             	test   %rdi,%rdi
 347:	74 2f                	je     378 <array_get_node_index+0x38>
 349:	48 85 f6             	test   %rsi,%rsi
 34c:	74 2a                	je     378 <array_get_node_index+0x38>
 34e:	8b 0f                	mov    (%rdi),%ecx
 350:	85 c9                	test   %ecx,%ecx
 352:	7e 24                	jle    378 <array_get_node_index+0x38>
 354:	48 8b 57 08          	mov    0x8(%rdi),%rdx
 358:	31 c0                	xor    %eax,%eax
 35a:	48 39 f2             	cmp    %rsi,%rdx
 35d:	75 12                	jne    371 <array_get_node_index+0x31>
 35f:	eb 1f                	jmp    380 <array_get_node_index+0x40>
 361:	0f 1f 80 00 00 00 00 	nopl   0x0(%rax)
 368:	48 83 c2 08          	add    $0x8,%rdx
 36c:	48 39 d6             	cmp    %rdx,%rsi
 36f:	74 0f                	je     380 <array_get_node_index+0x40>
 371:	83 c0 01             	add    $0x1,%eax
 374:	39 c8                	cmp    %ecx,%eax
 376:	75 f0                	jne    368 <array_get_node_index+0x28>
 378:	b8 ff ff ff ff       	mov    $0xffffffff,%eax
 37d:	c3                   	retq   
 37e:	66 90                	xchg   %ax,%ax
 380:	c3                   	retq   
 381:	66 66 2e 0f 1f 84 00 	data16 nopw %cs:0x0(%rax,%rax,1)
 388:	00 00 00 00 
 38c:	0f 1f 40 00          	nopl   0x0(%rax)

0000000000000390 <array_remove_node>:
 390:	f3 0f 1e fa          	endbr64 
 394:	48 85 ff             	test   %rdi,%rdi
 397:	74 2e                	je     3c7 <array_remove_node+0x37>
 399:	48 85 f6             	test   %rsi,%rsi
 39c:	74 29                	je     3c7 <array_remove_node+0x37>
 39e:	55                   	push   %rbp
 39f:	48 89 fd             	mov    %rdi,%rbp
 3a2:	e8 00 00 00 00       	callq  3a7 <array_remove_node+0x17>
 3a7:	89 c6                	mov    %eax,%esi
 3a9:	85 c0                	test   %eax,%eax
 3ab:	78 13                	js     3c0 <array_remove_node+0x30>
 3ad:	48 89 ef             	mov    %rbp,%rdi
 3b0:	5d                   	pop    %rbp
 3b1:	e9 00 00 00 00       	jmpq   3b6 <array_remove_node+0x26>
 3b6:	66 2e 0f 1f 84 00 00 	nopw   %cs:0x0(%rax,%rax,1)
 3bd:	00 00 00 
 3c0:	b8 ff ff ff ff       	mov    $0xffffffff,%eax
 3c5:	5d                   	pop    %rbp
 3c6:	c3                   	retq   
 3c7:	83 c8 ff             	or     $0xffffffff,%eax
 3ca:	c3                   	retq   
 3cb:	0f 1f 44 00 00       	nopl   0x0(%rax,%rax,1)

00000000000003d0 <array_remove_node_d>:
 3d0:	f3 0f 1e fa          	endbr64 
 3d4:	48 85 ff             	test   %rdi,%rdi
 3d7:	74 2e                	je     407 <array_remove_node_d+0x37>
 3d9:	48 85 f6             	test   %rsi,%rsi
 3dc:	74 29                	je     407 <array_remove_node_d+0x37>
 3de:	55                   	push   %rbp
 3df:	48 89 fd             	mov    %rdi,%rbp
 3e2:	e8 00 00 00 00       	callq  3e7 <array_remove_node_d+0x17>
 3e7:	89 c6                	mov    %eax,%esi
 3e9:	85 c0                	test   %eax,%eax
 3eb:	78 13                	js     400 <array_remove_node_d+0x30>
 3ed:	48 89 ef             	mov    %rbp,%rdi
 3f0:	5d                   	pop    %rbp
 3f1:	e9 00 00 00 00       	jmpq   3f6 <array_remove_node_d+0x26>
 3f6:	66 2e 0f 1f 84 00 00 	nopw   %cs:0x0(%rax,%rax,1)
 3fd:	00 00 00 
 400:	b8 ff ff ff ff       	mov    $0xffffffff,%eax
 405:	5d                   	pop    %rbp
 406:	c3                   	retq   
 407:	83 c8 ff             	or     $0xffffffff,%eax
 40a:	c3                   	retq   
 40b:	0f 1f 44 00 00       	nopl   0x0(%rax,%rax,1)

0000000000000410 <array_find_node_index>:
 410:	f3 0f 1e fa          	endbr64 
 414:	48 85 ff             	test   %rdi,%rdi
 417:	74 37                	je     450 <array_find_node_index+0x40>
 419:	8b 07                	mov    (%rdi),%eax
 41b:	85 c0                	test   %eax,%eax
 41d:	7e 31                	jle    450 <array_find_node_index+0x40>
 41f:	48 8b 4f 08          	mov    0x8(%rdi),%rcx
 423:	8d 78 ff             	lea    -0x1(%rax),%edi
 426:	31 c0                	xor    %eax,%eax
 428:	eb 12                	jmp    43c <array_find_node_index+0x2c>
 42a:	66 0f 1f 44 00 00    	nopw   0x0(%rax,%rax,1)
 430:	48 8d 50 01          	lea    0x1(%rax),%rdx
 434:	48 39 c7             	cmp    %rax,%rdi
 437:	74 17                	je     450 <array_find_node_index+0x40>
 439:	48 89 d0             	mov    %rdx,%rax
 43c:	41 89 c0             	mov    %eax,%r8d
 43f:	48 3b 34 c1          	cmp    (%rcx,%rax,8),%rsi
 443:	75 eb                	jne    430 <array_find_node_index+0x20>
 445:	44 89 c0             	mov    %r8d,%eax
 448:	c3                   	retq   
 449:	0f 1f 80 00 00 00 00 	nopl   0x0(%rax)
 450:	41 b8 ff ff ff ff    	mov    $0xffffffff,%r8d
 456:	44 89 c0             	mov    %r8d,%eax
 459:	c3                   	retq   
 45a:	66 0f 1f 44 00 00    	nopw   0x0(%rax,%rax,1)

0000000000000460 <array_move_node>:
 460:	f3 0f 1e fa          	endbr64 
 464:	41 55                	push   %r13
 466:	41 54                	push   %r12
 468:	55                   	push   %rbp
 469:	53                   	push   %rbx
 46a:	48 83 ec 08          	sub    $0x8,%rsp
 46e:	85 f6                	test   %esi,%esi
 470:	0f 88 c8 00 00 00    	js     53e <array_move_node+0xde>
 476:	48 85 ff             	test   %rdi,%rdi
 479:	0f 84 bf 00 00 00    	je     53e <array_move_node+0xde>
 47f:	48 63 da             	movslq %edx,%rbx
 482:	39 de                	cmp    %ebx,%esi
 484:	89 d8                	mov    %ebx,%eax
 486:	0f 4d c6             	cmovge %esi,%eax
 489:	39 07                	cmp    %eax,(%rdi)
 48b:	0f 8e ad 00 00 00    	jle    53e <array_move_node+0xde>
 491:	85 db                	test   %ebx,%ebx
 493:	0f 88 a5 00 00 00    	js     53e <array_move_node+0xde>
 499:	39 de                	cmp    %ebx,%esi
 49b:	7c 63                	jl     500 <array_move_node+0xa0>
 49d:	41 bc 00 00 00 00    	mov    $0x0,%r12d
 4a3:	7e 45                	jle    4ea <array_move_node+0x8a>
 4a5:	48 8b 6f 08          	mov    0x8(%rdi),%rbp
 4a9:	48 63 d6             	movslq %esi,%rdx
 4ac:	29 de                	sub    %ebx,%esi
 4ae:	48 8d 04 d5 00 00 00 	lea    0x0(,%rdx,8),%rax
 4b5:	00 
 4b6:	4c 8b 6c d5 00       	mov    0x0(%rbp,%rdx,8),%r13
 4bb:	8d 56 ff             	lea    -0x1(%rsi),%edx
 4be:	48 89 d7             	mov    %rdx,%rdi
 4c1:	48 8d 14 d5 08 00 00 	lea    0x8(,%rdx,8),%rdx
 4c8:	00 
 4c9:	48 f7 df             	neg    %rdi
 4cc:	48 c1 e7 03          	shl    $0x3,%rdi
 4d0:	48 8d 74 38 f8       	lea    -0x8(%rax,%rdi,1),%rsi
 4d5:	48 01 f8             	add    %rdi,%rax
 4d8:	48 01 ee             	add    %rbp,%rsi
 4db:	48 8d 7c 05 00       	lea    0x0(%rbp,%rax,1),%rdi
 4e0:	e8 00 00 00 00       	callq  4e5 <array_move_node+0x85>
 4e5:	4c 89 6c dd 00       	mov    %r13,0x0(%rbp,%rbx,8)
 4ea:	48 83 c4 08          	add    $0x8,%rsp
 4ee:	44 89 e0             	mov    %r12d,%eax
 4f1:	5b                   	pop    %rbx
 4f2:	5d                   	pop    %rbp
 4f3:	41 5c                	pop    %r12
 4f5:	41 5d                	pop    %r13
 4f7:	c3                   	retq   
 4f8:	0f 1f 84 00 00 00 00 	nopl   0x0(%rax,%rax,1)
 4ff:	00 
 500:	4c 8b 67 08          	mov    0x8(%rdi),%r12
 504:	48 63 c6             	movslq %esi,%rax
 507:	8d 53 ff             	lea    -0x1(%rbx),%edx
 50a:	48 c1 e0 03          	shl    $0x3,%rax
 50e:	29 f2                	sub    %esi,%edx
 510:	49 8d 3c 04          	lea    (%r12,%rax,1),%rdi
 514:	49 8d 74 04 08       	lea    0x8(%r12,%rax,1),%rsi
 519:	48 8b 2f             	mov    (%rdi),%rbp
 51c:	48 8d 14 d5 08 00 00 	lea    0x8(,%rdx,8),%rdx
 523:	00 
 524:	e8 00 00 00 00       	callq  529 <array_move_node+0xc9>
 529:	49 89 2c dc          	mov    %rbp,(%r12,%rbx,8)
 52d:	48 83 c4 08          	add    $0x8,%rsp
 531:	45 31 e4             	xor    %r12d,%r12d
 534:	5b                   	pop    %rbx
 535:	44 89 e0             	mov    %r12d,%eax
 538:	5d                   	pop    %rbp
 539:	41 5c                	pop    %r12
 53b:	41 5d                	pop    %r13
 53d:	c3                   	retq   
 53e:	41 bc ff ff ff ff    	mov    $0xffffffff,%r12d
 544:	eb a4                	jmp    4ea <array_move_node+0x8a>
 546:	66 2e 0f 1f 84 00 00 	nopw   %cs:0x0(%rax,%rax,1)
 54d:	00 00 00 

0000000000000550 <array_destroy>:
 550:	f3 0f 1e fa          	endbr64 
 554:	48 85 ff             	test   %rdi,%rdi
 557:	74 17                	je     570 <array_destroy+0x20>
 559:	55                   	push   %rbp
 55a:	48 89 fd             	mov    %rdi,%rbp
 55d:	48 8b 7f 08          	mov    0x8(%rdi),%rdi
 561:	e8 00 00 00 00       	callq  566 <array_destroy+0x16>
 566:	48 89 ef             	mov    %rbp,%rdi
 569:	5d                   	pop    %rbp
 56a:	e9 00 00 00 00       	jmpq   56f <array_destroy+0x1f>
 56f:	90                   	nop
 570:	c3                   	retq   
 571:	66 66 2e 0f 1f 84 00 	data16 nopw %cs:0x0(%rax,%rax,1)
 578:	00 00 00 00 
 57c:	0f 1f 40 00          	nopl   0x0(%rax)

0000000000000580 <array_destroy_d>:
 580:	f3 0f 1e fa          	endbr64 
 584:	48 85 ff             	test   %rdi,%rdi
 587:	74 5f                	je     5e8 <array_destroy_d+0x68>
 589:	55                   	push   %rbp
 58a:	48 89 fd             	mov    %rdi,%rbp
 58d:	53                   	push   %rbx
 58e:	48 83 ec 08          	sub    $0x8,%rsp
 592:	8b 07                	mov    (%rdi),%eax
 594:	4c 8b 47 08          	mov    0x8(%rdi),%r8
 598:	85 c0                	test   %eax,%eax
 59a:	7e 21                	jle    5bd <array_destroy_d+0x3d>
 59c:	31 db                	xor    %ebx,%ebx
 59e:	66 90                	xchg   %ax,%ax
 5a0:	49 8b 3c d8          	mov    (%r8,%rbx,8),%rdi
 5a4:	48 85 ff             	test   %rdi,%rdi
 5a7:	74 2f                	je     5d8 <array_destroy_d+0x58>
 5a9:	e8 00 00 00 00       	callq  5ae <array_destroy_d+0x2e>
 5ae:	8b 45 00             	mov    0x0(%rbp),%eax
 5b1:	48 83 c3 01          	add    $0x1,%rbx
 5b5:	4c 8b 45 08          	mov    0x8(%rbp),%r8
 5b9:	39 d8                	cmp    %ebx,%eax
 5bb:	7f e3                	jg     5a0 <array_destroy_d+0x20>
 5bd:	4c 89 c7             	mov    %r8,%rdi
 5c0:	e8 00 00 00 00       	callq  5c5 <array_destroy_d+0x45>
 5c5:	48 83 c4 08          	add    $0x8,%rsp
 5c9:	48 89 ef             	mov    %rbp,%rdi
 5cc:	5b                   	pop    %rbx
 5cd:	5d                   	pop    %rbp
 5ce:	e9 00 00 00 00       	jmpq   5d3 <array_destroy_d+0x53>
 5d3:	0f 1f 44 00 00       	nopl   0x0(%rax,%rax,1)
 5d8:	48 83 c3 01          	add    $0x1,%rbx
 5dc:	39 d8                	cmp    %ebx,%eax
 5de:	7f c0                	jg     5a0 <array_destroy_d+0x20>
 5e0:	eb db                	jmp    5bd <array_destroy_d+0x3d>
 5e2:	66 0f 1f 44 00 00    	nopw   0x0(%rax,%rax,1)
 5e8:	c3                   	retq   
 5e9:	0f 1f 80 00 00 00 00 	nopl   0x0(%rax)

00000000000005f0 <array_insert_node_head>:
 5f0:	f3 0f 1e fa          	endbr64 
 5f4:	48 85 ff             	test   %rdi,%rdi
 5f7:	74 5f                	je     658 <array_insert_node_head+0x68>
 5f9:	55                   	push   %rbp
 5fa:	48 89 f5             	mov    %rsi,%rbp
 5fd:	53                   	push   %rbx
 5fe:	48 89 fb             	mov    %rdi,%rbx
 601:	48 83 ec 08          	sub    $0x8,%rsp
 605:	e8 76 fa ff ff       	callq  80 <memory_extension>
 60a:	85 c0                	test   %eax,%eax
 60c:	75 3a                	jne    648 <array_insert_node_head+0x58>
 60e:	8b 0b                	mov    (%rbx),%ecx
 610:	4c 8b 43 08          	mov    0x8(%rbx),%r8
 614:	8d 51 ff             	lea    -0x1(%rcx),%edx
 617:	48 63 c2             	movslq %edx,%rax
 61a:	85 d2                	test   %edx,%edx
 61c:	78 13                	js     631 <array_insert_node_head+0x41>
 61e:	66 90                	xchg   %ax,%ax
 620:	49 8b 14 c0          	mov    (%r8,%rax,8),%rdx
 624:	49 89 54 c0 08       	mov    %rdx,0x8(%r8,%rax,8)
 629:	48 83 e8 01          	sub    $0x1,%rax
 62d:	85 c0                	test   %eax,%eax
 62f:	79 ef                	jns    620 <array_insert_node_head+0x30>
 631:	83 c1 01             	add    $0x1,%ecx
 634:	49 89 28             	mov    %rbp,(%r8)
 637:	4c 89 c0             	mov    %r8,%rax
 63a:	89 0b                	mov    %ecx,(%rbx)
 63c:	48 83 c4 08          	add    $0x8,%rsp
 640:	5b                   	pop    %rbx
 641:	5d                   	pop    %rbp
 642:	c3                   	retq   
 643:	0f 1f 44 00 00       	nopl   0x0(%rax,%rax,1)
 648:	48 83 c4 08          	add    $0x8,%rsp
 64c:	45 31 c0             	xor    %r8d,%r8d
 64f:	4c 89 c0             	mov    %r8,%rax
 652:	5b                   	pop    %rbx
 653:	5d                   	pop    %rbp
 654:	c3                   	retq   
 655:	0f 1f 00             	nopl   (%rax)
 658:	45 31 c0             	xor    %r8d,%r8d
 65b:	4c 89 c0             	mov    %r8,%rax
 65e:	c3                   	retq   
 65f:	90                   	nop

0000000000000660 <array_insert_node_tail>:
 660:	f3 0f 1e fa          	endbr64 
 664:	48 85 ff             	test   %rdi,%rdi
 667:	74 47                	je     6b0 <array_insert_node_tail+0x50>
 669:	55                   	push   %rbp
 66a:	48 89 f5             	mov    %rsi,%rbp
 66d:	53                   	push   %rbx
 66e:	48 89 fb             	mov    %rdi,%rbx
 671:	48 83 ec 08          	sub    $0x8,%rsp
 675:	e8 06 fa ff ff       	callq  80 <memory_extension>
 67a:	85 c0                	test   %eax,%eax
 67c:	75 22                	jne    6a0 <array_insert_node_tail+0x40>
 67e:	48 63 0b             	movslq (%rbx),%rcx
 681:	48 8b 53 08          	mov    0x8(%rbx),%rdx
 685:	48 89 c8             	mov    %rcx,%rax
 688:	4c 8d 04 ca          	lea    (%rdx,%rcx,8),%r8
 68c:	83 c0 01             	add    $0x1,%eax
 68f:	49 89 28             	mov    %rbp,(%r8)
 692:	89 03                	mov    %eax,(%rbx)
 694:	48 83 c4 08          	add    $0x8,%rsp
 698:	4c 89 c0             	mov    %r8,%rax
 69b:	5b                   	pop    %rbx
 69c:	5d                   	pop    %rbp
 69d:	c3                   	retq   
 69e:	66 90                	xchg   %ax,%ax
 6a0:	48 83 c4 08          	add    $0x8,%rsp
 6a4:	45 31 c0             	xor    %r8d,%r8d
 6a7:	4c 89 c0             	mov    %r8,%rax
 6aa:	5b                   	pop    %rbx
 6ab:	5d                   	pop    %rbp
 6ac:	c3                   	retq   
 6ad:	0f 1f 00             	nopl   (%rax)
 6b0:	45 31 c0             	xor    %r8d,%r8d
 6b3:	4c 89 c0             	mov    %r8,%rax
 6b6:	c3                   	retq   
 6b7:	66 0f 1f 84 00 00 00 	nopw   0x0(%rax,%rax,1)
 6be:	00 00 

00000000000006c0 <array_insert_at>:
 6c0:	f3 0f 1e fa          	endbr64 
 6c4:	48 85 ff             	test   %rdi,%rdi
 6c7:	0f 84 93 00 00 00    	je     760 <array_insert_at+0xa0>
 6cd:	41 54                	push   %r12
 6cf:	41 89 f4             	mov    %esi,%r12d
 6d2:	55                   	push   %rbp
 6d3:	48 89 d5             	mov    %rdx,%rbp
 6d6:	53                   	push   %rbx
 6d7:	48 89 fb             	mov    %rdi,%rbx
 6da:	e8 a1 f9 ff ff       	callq  80 <memory_extension>
 6df:	85 c0                	test   %eax,%eax
 6e1:	75 6d                	jne    750 <array_insert_at+0x90>
 6e3:	8b 13                	mov    (%rbx),%edx
 6e5:	45 31 c9             	xor    %r9d,%r9d
 6e8:	45 85 e4             	test   %r12d,%r12d
 6eb:	78 10                	js     6fd <array_insert_at+0x3d>
 6ed:	41 39 d4             	cmp    %edx,%r12d
 6f0:	44 89 e0             	mov    %r12d,%eax
 6f3:	0f 4f c2             	cmovg  %edx,%eax
 6f6:	4c 63 c8             	movslq %eax,%r9
 6f9:	49 c1 e1 03          	shl    $0x3,%r9
 6fd:	8d 72 ff             	lea    -0x1(%rdx),%esi
 700:	48 8b 7b 08          	mov    0x8(%rbx),%rdi
 704:	39 c6                	cmp    %eax,%esi
 706:	7c 30                	jl     738 <array_insert_at+0x78>
 708:	4c 63 c6             	movslq %esi,%r8
 70b:	29 c6                	sub    %eax,%esi
 70d:	49 c1 e0 03          	shl    $0x3,%r8
 711:	48 c1 e6 03          	shl    $0x3,%rsi
 715:	4a 8d 0c 07          	lea    (%rdi,%r8,1),%rcx
 719:	4e 8d 44 07 f8       	lea    -0x8(%rdi,%r8,1),%r8
 71e:	49 29 f0             	sub    %rsi,%r8
 721:	0f 1f 80 00 00 00 00 	nopl   0x0(%rax)
 728:	48 8b 31             	mov    (%rcx),%rsi
 72b:	48 83 e9 08          	sub    $0x8,%rcx
 72f:	48 89 71 10          	mov    %rsi,0x10(%rcx)
 733:	4c 39 c1             	cmp    %r8,%rcx
 736:	75 f0                	jne    728 <array_insert_at+0x68>
 738:	4a 8d 04 0f          	lea    (%rdi,%r9,1),%rax
 73c:	83 c2 01             	add    $0x1,%edx
 73f:	48 89 28             	mov    %rbp,(%rax)
 742:	89 13                	mov    %edx,(%rbx)
 744:	5b                   	pop    %rbx
 745:	5d                   	pop    %rbp
 746:	41 5c                	pop    %r12
 748:	c3                   	retq   
 749:	0f 1f 80 00 00 00 00 	nopl   0x0(%rax)
 750:	5b                   	pop    %rbx
 751:	31 c0                	xor    %eax,%eax
 753:	5d                   	pop    %rbp
 754:	41 5c                	pop    %r12
 756:	c3                   	retq   
 757:	66 0f 1f 84 00 00 00 	nopw   0x0(%rax,%rax,1)
 75e:	00 00 
 760:	31 c0                	xor    %eax,%eax
 762:	c3                   	retq   
 763:	66 66 2e 0f 1f 84 00 	data16 nopw %cs:0x0(%rax,%rax,1)
 76a:	00 00 00 00 
 76e:	66 90                	xchg   %ax,%ax

0000000000000770 <array_delete_all_node_d>:
 770:	f3 0f 1e fa          	endbr64 
 774:	48 85 ff             	test   %rdi,%rdi
 777:	74 57                	je     7d0 <array_delete_all_node_d+0x60>
 779:	55                   	push   %rbp
 77a:	48 89 fd             	mov    %rdi,%rbp
 77d:	53                   	push   %rbx
 77e:	31 db                	xor    %ebx,%ebx
 780:	48 83 ec 08          	sub    $0x8,%rsp
 784:	8b 07                	mov    (%rdi),%eax
 786:	85 c0                	test   %eax,%eax
 788:	7f 16                	jg     7a0 <array_delete_all_node_d+0x30>
 78a:	eb 29                	jmp    7b5 <array_delete_all_node_d+0x45>
 78c:	0f 1f 40 00          	nopl   0x0(%rax)
 790:	e8 00 00 00 00       	callq  795 <array_delete_all_node_d+0x25>
 795:	8b 45 00             	mov    0x0(%rbp),%eax
 798:	48 83 c3 01          	add    $0x1,%rbx
 79c:	39 d8                	cmp    %ebx,%eax
 79e:	7e 15                	jle    7b5 <array_delete_all_node_d+0x45>
 7a0:	48 8b 55 08          	mov    0x8(%rbp),%rdx
 7a4:	48 8b 3c da          	mov    (%rdx,%rbx,8),%rdi
 7a8:	48 85 ff             	test   %rdi,%rdi
 7ab:	75 e3                	jne    790 <array_delete_all_node_d+0x20>
 7ad:	48 83 c3 01          	add    $0x1,%rbx
 7b1:	39 d8                	cmp    %ebx,%eax
 7b3:	7f ef                	jg     7a4 <array_delete_all_node_d+0x34>
 7b5:	c7 45 00 00 00 00 00 	movl   $0x0,0x0(%rbp)
 7bc:	48 83 c4 08          	add    $0x8,%rsp
 7c0:	48 89 ef             	mov    %rbp,%rdi
 7c3:	5b                   	pop    %rbx
 7c4:	5d                   	pop    %rbp
 7c5:	e9 b6 f8 ff ff       	jmpq   80 <memory_extension>
 7ca:	66 0f 1f 44 00 00    	nopw   0x0(%rax,%rax,1)
 7d0:	c3                   	retq   
 7d1:	66 66 2e 0f 1f 84 00 	data16 nopw %cs:0x0(%rax,%rax,1)
 7d8:	00 00 00 00 
 7dc:	0f 1f 40 00          	nopl   0x0(%rax)

00000000000007e0 <init_array>:
 7e0:	f3 0f 1e fa          	endbr64 
 7e4:	41 54                	push   %r12
 7e6:	bf 90 00 00 00       	mov    $0x90,%edi
 7eb:	55                   	push   %rbp
 7ec:	48 81 ec 18 04 00 00 	sub    $0x418,%rsp
 7f3:	64 48 8b 04 25 28 00 	mov    %fs:0x28,%rax
 7fa:	00 00 
 7fc:	48 89 84 24 08 04 00 	mov    %rax,0x408(%rsp)
 803:	00 
 804:	31 c0                	xor    %eax,%eax
 806:	e8 00 00 00 00       	callq  80b <init_array+0x2b>
 80b:	49 89 c4             	mov    %rax,%r12
 80e:	48 85 c0             	test   %rax,%rax
 811:	0f 84 f3 00 00 00    	je     90a <init_array+0x12a>
 817:	c7 40 04 00 08 00 00 	movl   $0x800,0x4(%rax)
 81e:	bf 00 40 00 00       	mov    $0x4000,%edi
 823:	e8 00 00 00 00       	callq  828 <init_array+0x48>
 828:	49 89 44 24 08       	mov    %rax,0x8(%r12)
 82d:	48 85 c0             	test   %rax,%rax
 830:	0f 84 2a 01 00 00    	je     960 <init_array+0x180>
 836:	f3 0f 7e 05 00 00 00 	movq   0x0(%rip),%xmm0        # 83e <init_array+0x5e>
 83d:	00 
 83e:	41 c7 04 24 00 00 00 	movl   $0x0,(%r12)
 845:	00 
 846:	0f 16 05 00 00 00 00 	movhps 0x0(%rip),%xmm0        # 84d <init_array+0x6d>
 84d:	41 0f 11 44 24 10    	movups %xmm0,0x10(%r12)
 853:	f3 0f 7e 05 00 00 00 	movq   0x0(%rip),%xmm0        # 85b <init_array+0x7b>
 85a:	00 
 85b:	0f 16 05 00 00 00 00 	movhps 0x0(%rip),%xmm0        # 862 <init_array+0x82>
 862:	41 0f 11 44 24 20    	movups %xmm0,0x20(%r12)
 868:	f3 0f 7e 05 00 00 00 	movq   0x0(%rip),%xmm0        # 870 <init_array+0x90>
 86f:	00 
 870:	0f 16 05 00 00 00 00 	movhps 0x0(%rip),%xmm0        # 877 <init_array+0x97>
 877:	41 0f 11 44 24 30    	movups %xmm0,0x30(%r12)
 87d:	f3 0f 7e 05 00 00 00 	movq   0x0(%rip),%xmm0        # 885 <init_array+0xa5>
 884:	00 
 885:	0f 16 05 00 00 00 00 	movhps 0x0(%rip),%xmm0        # 88c <init_array+0xac>
 88c:	41 0f 11 44 24 40    	movups %xmm0,0x40(%r12)
 892:	f3 0f 7e 05 00 00 00 	movq   0x0(%rip),%xmm0        # 89a <init_array+0xba>
 899:	00 
 89a:	0f 16 05 00 00 00 00 	movhps 0x0(%rip),%xmm0        # 8a1 <init_array+0xc1>
 8a1:	41 0f 11 44 24 50    	movups %xmm0,0x50(%r12)
 8a7:	f3 0f 7e 05 00 00 00 	movq   0x0(%rip),%xmm0        # 8af <init_array+0xcf>
 8ae:	00 
 8af:	0f 16 05 00 00 00 00 	movhps 0x0(%rip),%xmm0        # 8b6 <init_array+0xd6>
 8b6:	41 0f 11 44 24 60    	movups %xmm0,0x60(%r12)
 8bc:	f3 0f 7e 05 00 00 00 	movq   0x0(%rip),%xmm0        # 8c4 <init_array+0xe4>
 8c3:	00 
 8c4:	0f 16 05 00 00 00 00 	movhps 0x0(%rip),%xmm0        # 8cb <init_array+0xeb>
 8cb:	41 0f 11 44 24 70    	movups %xmm0,0x70(%r12)
 8d1:	f3 0f 7e 05 00 00 00 	movq   0x0(%rip),%xmm0        # 8d9 <init_array+0xf9>
 8d8:	00 
 8d9:	0f 16 05 00 00 00 00 	movhps 0x0(%rip),%xmm0        # 8e0 <init_array+0x100>
 8e0:	41 0f 11 84 24 80 00 	movups %xmm0,0x80(%r12)
 8e7:	00 00 
 8e9:	48 8b 84 24 08 04 00 	mov    0x408(%rsp),%rax
 8f0:	00 
 8f1:	64 48 33 04 25 28 00 	xor    %fs:0x28,%rax
 8f8:	00 00 
 8fa:	75 5f                	jne    95b <init_array+0x17b>
 8fc:	48 81 c4 18 04 00 00 	add    $0x418,%rsp
 903:	4c 89 e0             	mov    %r12,%rax
 906:	5d                   	pop    %rbp
 907:	41 5c                	pop    %r12
 909:	c3                   	retq   
 90a:	e8 00 00 00 00       	callq  90f <init_array+0x12f>
 90f:	48 89 e5             	mov    %rsp,%rbp
 912:	8b 38                	mov    (%rax),%edi
 914:	e8 00 00 00 00       	callq  919 <init_array+0x139>
 919:	48 89 ef             	mov    %rbp,%rdi
 91c:	b9 00 04 00 00       	mov    $0x400,%ecx
 921:	4c 8d 05 00 00 00 00 	lea    0x0(%rip),%r8        # 928 <init_array+0x148>
 928:	49 89 c1             	mov    %rax,%r9
 92b:	ba 01 00 00 00       	mov    $0x1,%edx
 930:	be 00 04 00 00       	mov    $0x400,%esi
 935:	31 c0                	xor    %eax,%eax
 937:	e8 00 00 00 00       	callq  93c <init_array+0x15c>
 93c:	b9 1b 00 00 00       	mov    $0x1b,%ecx
 941:	48 89 ee             	mov    %rbp,%rsi
 944:	31 ff                	xor    %edi,%edi
 946:	4c 8d 05 00 00 00 00 	lea    0x0(%rip),%r8        # 94d <init_array+0x16d>
 94d:	48 8d 15 00 00 00 00 	lea    0x0(%rip),%rdx        # 954 <init_array+0x174>
 954:	e8 00 00 00 00       	callq  959 <init_array+0x179>
 959:	eb 8e                	jmp    8e9 <init_array+0x109>
 95b:	e8 00 00 00 00       	callq  960 <init_array+0x180>
 960:	e8 00 00 00 00       	callq  965 <init_array+0x185>
 965:	48 89 e5             	mov    %rsp,%rbp
 968:	8b 38                	mov    (%rax),%edi
 96a:	e8 00 00 00 00       	callq  96f <init_array+0x18f>
 96f:	4c 8d 05 00 00 00 00 	lea    0x0(%rip),%r8        # 976 <init_array+0x196>
 976:	b9 00 04 00 00       	mov    $0x400,%ecx
 97b:	48 89 ef             	mov    %rbp,%rdi
 97e:	49 89 c1             	mov    %rax,%r9
 981:	ba 01 00 00 00       	mov    $0x1,%edx
 986:	be 00 04 00 00       	mov    $0x400,%esi
 98b:	31 c0                	xor    %eax,%eax
 98d:	e8 00 00 00 00       	callq  992 <init_array+0x1b2>
 992:	b9 22 00 00 00       	mov    $0x22,%ecx
 997:	48 89 ee             	mov    %rbp,%rsi
 99a:	31 ff                	xor    %edi,%edi
 99c:	4c 8d 05 00 00 00 00 	lea    0x0(%rip),%r8        # 9a3 <init_array+0x1c3>
 9a3:	48 8d 15 00 00 00 00 	lea    0x0(%rip),%rdx        # 9aa <init_array+0x1ca>
 9aa:	e8 00 00 00 00       	callq  9af <init_array+0x1cf>
 9af:	4c 89 e7             	mov    %r12,%rdi
 9b2:	45 31 e4             	xor    %r12d,%r12d
 9b5:	e8 00 00 00 00       	callq  9ba <init_array+0x1da>
 9ba:	e9 2a ff ff ff       	jmpq   8e9 <init_array+0x109>
