	.file	"mArray_none.c"
	.text
.Ltext0:
	.p2align 4
	.globl	array_none_insert_node_head
	.type	array_none_insert_node_head, @function
array_none_insert_node_head:
.LVL0:
.LFB1:
	.file 1 "./array/mArray_none.c"
	.loc 1 71 1 view -0
	.cfi_startproc
	.loc 1 71 1 is_stmt 0 view .LVU1
	endbr64
	.loc 1 72 5 is_stmt 1 view .LVU2
	.loc 1 72 7 is_stmt 0 view .LVU3
	testq	%rdi, %rdi
	je	.L7
	.loc 1 75 5 is_stmt 1 view .LVU4
	.loc 1 75 15 is_stmt 0 view .LVU5
	movl	(%rdi), %ecx
	.loc 1 75 7 view .LVU6
	cmpl	4(%rdi), %ecx
	jge	.L7
	.loc 1 80 5 is_stmt 1 view .LVU7
	.loc 1 81 5 view .LVU8
	.loc 1 81 10 is_stmt 0 view .LVU9
	leal	-1(%rcx), %edx
.LVL1:
	.loc 1 81 27 is_stmt 1 view .LVU10
	movq	8(%rdi), %r8
	movslq	%edx, %rax
	.loc 1 81 5 is_stmt 0 view .LVU11
	testl	%edx, %edx
	js	.L5
.LVL2:
	.p2align 4,,10
	.p2align 3
.L4:
	.loc 1 82 9 is_stmt 1 discriminator 3 view .LVU12
	.loc 1 82 28 is_stmt 0 discriminator 3 view .LVU13
	movq	(%r8,%rax,8), %rdx
	movq	%rdx, 8(%r8,%rax,8)
	.loc 1 81 32 is_stmt 1 discriminator 3 view .LVU14
.LVL3:
	.loc 1 81 27 discriminator 3 view .LVU15
	subq	$1, %rax
.LVL4:
	.loc 1 81 5 is_stmt 0 discriminator 3 view .LVU16
	testl	%eax, %eax
	jns	.L4
.L5:
	.loc 1 85 5 is_stmt 1 view .LVU17
.LVL5:
	.loc 1 86 5 view .LVU18
	.loc 1 88 18 is_stmt 0 view .LVU19
	addl	$1, %ecx
	.loc 1 86 16 view .LVU20
	movq	%rsi, (%r8)
	.loc 1 88 5 is_stmt 1 view .LVU21
	.loc 1 91 1 is_stmt 0 view .LVU22
	movq	%r8, %rax
	.loc 1 88 18 view .LVU23
	movl	%ecx, (%rdi)
	.loc 1 90 5 is_stmt 1 view .LVU24
	.loc 1 91 1 is_stmt 0 view .LVU25
	ret
.LVL6:
	.p2align 4,,10
	.p2align 3
.L7:
	.loc 1 73 16 view .LVU26
	xorl	%r8d, %r8d
	.loc 1 91 1 view .LVU27
	movq	%r8, %rax
	ret
	.cfi_endproc
.LFE1:
	.size	array_none_insert_node_head, .-array_none_insert_node_head
	.p2align 4
	.globl	array_none_insert_node_tail
	.type	array_none_insert_node_tail, @function
array_none_insert_node_tail:
.LVL7:
.LFB2:
	.loc 1 102 1 is_stmt 1 view -0
	.cfi_startproc
	.loc 1 102 1 is_stmt 0 view .LVU29
	endbr64
	.loc 1 103 5 is_stmt 1 view .LVU30
	.loc 1 103 7 is_stmt 0 view .LVU31
	testq	%rdi, %rdi
	je	.L14
	.loc 1 106 5 is_stmt 1 view .LVU32
	.loc 1 106 15 is_stmt 0 view .LVU33
	movl	(%rdi), %eax
	.loc 1 106 7 view .LVU34
	cmpl	4(%rdi), %eax
	jge	.L14
	.loc 1 110 5 is_stmt 1 view .LVU35
	.loc 1 110 22 is_stmt 0 view .LVU36
	movq	8(%rdi), %rdx
	.loc 1 110 51 view .LVU37
	movslq	%eax, %rcx
	.loc 1 113 18 view .LVU38
	addl	$1, %eax
	.loc 1 110 22 view .LVU39
	leaq	(%rdx,%rcx,8), %r8
.LVL8:
	.loc 1 111 5 is_stmt 1 view .LVU40
	.loc 1 111 16 is_stmt 0 view .LVU41
	movq	%rsi, (%r8)
	.loc 1 113 5 is_stmt 1 view .LVU42
	.loc 1 113 18 is_stmt 0 view .LVU43
	movl	%eax, (%rdi)
	.loc 1 115 5 is_stmt 1 view .LVU44
	.loc 1 116 1 is_stmt 0 view .LVU45
	movq	%r8, %rax
	ret
.LVL9:
	.p2align 4,,10
	.p2align 3
.L14:
	.loc 1 104 16 view .LVU46
	xorl	%r8d, %r8d
	.loc 1 116 1 view .LVU47
	movq	%r8, %rax
	ret
	.cfi_endproc
.LFE2:
	.size	array_none_insert_node_tail, .-array_none_insert_node_tail
	.p2align 4
	.globl	array_none_insert_at
	.type	array_none_insert_at, @function
array_none_insert_at:
.LVL10:
.LFB3:
	.loc 1 128 1 is_stmt 1 view -0
	.cfi_startproc
	.loc 1 128 1 is_stmt 0 view .LVU49
	endbr64
	.loc 1 129 5 is_stmt 1 view .LVU50
	.loc 1 129 7 is_stmt 0 view .LVU51
	testq	%rdi, %rdi
	je	.L22
	.loc 1 132 5 is_stmt 1 view .LVU52
	.loc 1 132 15 is_stmt 0 view .LVU53
	movl	(%rdi), %r9d
	.loc 1 132 7 view .LVU54
	cmpl	4(%rdi), %r9d
	jge	.L22
	.loc 1 135 5 is_stmt 1 view .LVU55
	.loc 1 135 7 is_stmt 0 view .LVU56
	testl	%esi, %esi
	js	.L23
	.loc 1 137 12 is_stmt 1 view .LVU57
	cmpl	%esi, %r9d
	cmovle	%r9d, %esi
.LVL11:
	.loc 1 137 12 is_stmt 0 view .LVU58
	movslq	%esi, %rax
	leaq	0(,%rax,8), %r11
.L17:
.LVL12:
	.loc 1 142 5 is_stmt 1 view .LVU59
	.loc 1 143 5 view .LVU60
	.loc 1 143 10 is_stmt 0 view .LVU61
	leal	-1(%r9), %r10d
.LVL13:
	.loc 1 143 27 is_stmt 1 view .LVU62
	movq	8(%rdi), %rax
	.loc 1 143 5 is_stmt 0 view .LVU63
	cmpl	%r10d, %esi
	jg	.L20
	movslq	%r10d, %r8
	subl	%esi, %r10d
.LVL14:
	.loc 1 143 5 view .LVU64
	salq	$3, %r8
.LVL15:
	.loc 1 143 5 view .LVU65
	salq	$3, %r10
	leaq	(%rax,%r8), %rcx
	leaq	-8(%rax,%r8), %r8
	subq	%r10, %r8
.LVL16:
	.p2align 4,,10
	.p2align 3
.L19:
	.loc 1 144 9 is_stmt 1 discriminator 3 view .LVU66
	.loc 1 144 28 is_stmt 0 discriminator 3 view .LVU67
	movq	(%rcx), %rsi
	subq	$8, %rcx
	movq	%rsi, 16(%rcx)
	.loc 1 143 36 is_stmt 1 discriminator 3 view .LVU68
	.loc 1 143 27 discriminator 3 view .LVU69
	.loc 1 143 5 is_stmt 0 discriminator 3 view .LVU70
	cmpq	%rcx, %r8
	jne	.L19
.L20:
	.loc 1 147 5 is_stmt 1 view .LVU71
	.loc 1 147 22 is_stmt 0 view .LVU72
	addq	%r11, %rax
.LVL17:
	.loc 1 148 5 is_stmt 1 view .LVU73
	.loc 1 150 18 is_stmt 0 view .LVU74
	addl	$1, %r9d
	.loc 1 148 16 view .LVU75
	movq	%rdx, (%rax)
	.loc 1 150 5 is_stmt 1 view .LVU76
	.loc 1 150 18 is_stmt 0 view .LVU77
	movl	%r9d, (%rdi)
	.loc 1 152 5 is_stmt 1 view .LVU78
	.loc 1 152 12 is_stmt 0 view .LVU79
	ret
.LVL18:
	.p2align 4,,10
	.p2align 3
.L23:
	.loc 1 152 12 view .LVU80
	xorl	%r11d, %r11d
	.loc 1 136 15 view .LVU81
	xorl	%esi, %esi
.LVL19:
	.loc 1 136 15 view .LVU82
	jmp	.L17
.LVL20:
	.p2align 4,,10
	.p2align 3
.L22:
	.loc 1 130 16 view .LVU83
	xorl	%eax, %eax
	.loc 1 153 1 view .LVU84
	ret
	.cfi_endproc
.LFE3:
	.size	array_none_insert_at, .-array_none_insert_at
	.p2align 4
	.globl	array_none_remove_node_at
	.type	array_none_remove_node_at, @function
array_none_remove_node_at:
.LVL21:
.LFB4:
	.loc 1 163 57 is_stmt 1 view -0
	.cfi_startproc
	.loc 1 163 57 is_stmt 0 view .LVU86
	endbr64
	.loc 1 164 5 is_stmt 1 view .LVU87
	.loc 1 168 5 view .LVU88
	.loc 1 168 7 is_stmt 0 view .LVU89
	testl	%esi, %esi
	js	.L32
	.loc 1 163 57 view .LVU90
	pushq	%rbp
	.cfi_def_cfa_offset 16
	.cfi_offset 6, -16
	pushq	%rbx
	.cfi_def_cfa_offset 24
	.cfi_offset 3, -24
	movq	%rdi, %rbx
	subq	$8, %rsp
	.cfi_def_cfa_offset 32
	.loc 1 168 7 view .LVU91
	testq	%rdi, %rdi
	je	.L30
	.loc 1 168 37 discriminator 1 view .LVU92
	movl	(%rdi), %eax
	.loc 1 168 18 discriminator 1 view .LVU93
	cmpl	%esi, %eax
	jle	.L30
.LVL22:
	.loc 1 174 17 is_stmt 1 view .LVU94
	.loc 1 174 32 is_stmt 0 view .LVU95
	leal	-1(%rax), %ebp
	.loc 1 174 5 view .LVU96
	cmpl	%ebp, %esi
	jge	.L28
	.loc 1 175 26 view .LVU97
	subl	%esi, %eax
	movq	8(%rdi), %rdi
.LVL23:
	.loc 1 175 26 view .LVU98
	movslq	%esi, %rdx
	subl	$2, %eax
	salq	$3, %rdx
	leaq	8(,%rax,8), %r8
	leaq	8(%rdi,%rdx), %rsi
.LVL24:
	.loc 1 175 26 view .LVU99
	addq	%rdx, %rdi
	movq	%r8, %rdx
	call	memmove@PLT
.LVL25:
.L28:
	.loc 1 178 5 is_stmt 1 view .LVU100
	.loc 1 178 18 is_stmt 0 view .LVU101
	movl	%ebp, (%rbx)
	.loc 1 180 5 is_stmt 1 view .LVU102
	.loc 1 180 12 is_stmt 0 view .LVU103
	xorl	%eax, %eax
.L25:
	.loc 1 181 1 view .LVU104
	addq	$8, %rsp
	.cfi_remember_state
	.cfi_def_cfa_offset 24
	popq	%rbx
	.cfi_def_cfa_offset 16
.LVL26:
	.loc 1 181 1 view .LVU105
	popq	%rbp
	.cfi_def_cfa_offset 8
	ret
.LVL27:
.L30:
	.cfi_restore_state
	.loc 1 169 16 view .LVU106
	movl	$-1, %eax
	jmp	.L25
.LVL28:
.L32:
	.cfi_def_cfa_offset 8
	.cfi_restore 3
	.cfi_restore 6
	.loc 1 169 16 view .LVU107
	orl	$-1, %eax
	.loc 1 181 1 view .LVU108
	ret
	.cfi_endproc
.LFE4:
	.size	array_none_remove_node_at, .-array_none_remove_node_at
	.p2align 4
	.globl	array_none_delete_all_node
	.type	array_none_delete_all_node, @function
array_none_delete_all_node:
.LVL29:
.LFB8:
	.loc 1 260 1 is_stmt 1 view -0
	.cfi_startproc
	.loc 1 260 1 is_stmt 0 view .LVU110
	endbr64
	.loc 1 261 5 is_stmt 1 view .LVU111
	.loc 1 261 7 is_stmt 0 view .LVU112
	testq	%rdi, %rdi
	je	.L35
	.loc 1 265 5 is_stmt 1 view .LVU113
	.loc 1 265 19 is_stmt 0 view .LVU114
	movl	$0, (%rdi)
.L35:
	.loc 1 266 1 view .LVU115
	ret
	.cfi_endproc
.LFE8:
	.size	array_none_delete_all_node, .-array_none_delete_all_node
	.p2align 4
	.globl	array_none_get_node_at
	.type	array_none_get_node_at, @function
array_none_get_node_at:
.LVL30:
.LFB13:
	.loc 1 354 1 is_stmt 1 view -0
	.cfi_startproc
	.loc 1 354 1 is_stmt 0 view .LVU117
	endbr64
	.loc 1 355 5 is_stmt 1 view .LVU118
	.loc 1 358 5 view .LVU119
	.loc 1 358 7 is_stmt 0 view .LVU120
	testq	%rdi, %rdi
	je	.L43
	testl	%esi, %esi
	js	.L43
	.loc 1 358 18 discriminator 1 view .LVU121
	cmpl	%esi, (%rdi)
	jle	.L43
	.loc 1 361 5 is_stmt 1 view .LVU122
	.loc 1 361 12 is_stmt 0 view .LVU123
	movq	8(%rdi), %rax
	.loc 1 361 26 view .LVU124
	movslq	%esi, %rsi
	.loc 1 361 12 view .LVU125
	leaq	(%rax,%rsi,8), %rax
	ret
	.p2align 4,,10
	.p2align 3
.L43:
	.loc 1 359 16 view .LVU126
	xorl	%eax, %eax
	.loc 1 362 1 view .LVU127
	ret
	.cfi_endproc
.LFE13:
	.size	array_none_get_node_at, .-array_none_get_node_at
	.p2align 4
	.globl	array_none_swap_node
	.type	array_none_swap_node, @function
array_none_swap_node:
.LVL31:
.LFB15:
	.loc 1 395 1 is_stmt 1 view -0
	.cfi_startproc
	.loc 1 395 1 is_stmt 0 view .LVU129
	endbr64
	.loc 1 396 5 is_stmt 1 view .LVU130
	.loc 1 399 5 view .LVU131
	.loc 1 399 7 is_stmt 0 view .LVU132
	testq	%rdi, %rdi
	je	.L47
	testl	%esi, %esi
	js	.L47
	.loc 1 399 45 discriminator 1 view .LVU133
	cmpl	%edx, %esi
	movl	%edx, %eax
	cmovge	%esi, %eax
	cmpl	%eax, (%rdi)
	jle	.L47
	testl	%edx, %edx
	js	.L47
	.loc 1 403 5 is_stmt 1 view .LVU134
	.loc 1 403 35 is_stmt 0 view .LVU135
	movq	8(%rdi), %rax
	.loc 1 403 41 view .LVU136
	movslq	%esi, %rsi
	.loc 1 404 37 view .LVU137
	movslq	%edx, %rdx
	.loc 1 403 41 view .LVU138
	leaq	(%rax,%rsi,8), %rcx
	.loc 1 404 37 view .LVU139
	leaq	(%rax,%rdx,8), %rax
	.loc 1 404 22 view .LVU140
	movq	(%rax), %rdx
.LVL32:
	.loc 1 403 21 view .LVU141
	movq	(%rcx), %rsi
.LVL33:
	.loc 1 404 5 is_stmt 1 view .LVU142
	.loc 1 404 22 is_stmt 0 view .LVU143
	movq	%rdx, (%rcx)
	.loc 1 405 5 is_stmt 1 view .LVU144
	.loc 1 405 22 is_stmt 0 view .LVU145
	movq	%rsi, (%rax)
	.loc 1 407 5 is_stmt 1 view .LVU146
	.loc 1 407 12 is_stmt 0 view .LVU147
	xorl	%eax, %eax
	ret
.LVL34:
	.p2align 4,,10
	.p2align 3
.L47:
	.loc 1 400 16 view .LVU148
	movl	$-1, %eax
	.loc 1 408 1 view .LVU149
	ret
	.cfi_endproc
.LFE15:
	.size	array_none_swap_node, .-array_none_swap_node
	.p2align 4
	.globl	array_none_remove_node_at_d
	.type	array_none_remove_node_at_d, @function
array_none_remove_node_at_d:
.LVL35:
.LFB5:
	.loc 1 191 59 is_stmt 1 view -0
	.cfi_startproc
	.loc 1 191 59 is_stmt 0 view .LVU151
	endbr64
	.loc 1 192 5 is_stmt 1 view .LVU152
	.loc 1 196 5 view .LVU153
	.loc 1 196 7 is_stmt 0 view .LVU154
	testq	%rdi, %rdi
	je	.L59
	.loc 1 191 59 view .LVU155
	pushq	%r13
	.cfi_def_cfa_offset 16
	.cfi_offset 13, -16
	pushq	%r12
	.cfi_def_cfa_offset 24
	.cfi_offset 12, -24
	pushq	%rbp
	.cfi_def_cfa_offset 32
	.cfi_offset 6, -32
	movl	%esi, %ebp
	pushq	%rbx
	.cfi_def_cfa_offset 40
	.cfi_offset 3, -40
	subq	$8, %rsp
	.cfi_def_cfa_offset 48
	.loc 1 196 7 view .LVU156
	testl	%esi, %esi
	js	.L54
	.loc 1 196 37 discriminator 1 view .LVU157
	movl	(%rdi), %eax
	movq	%rdi, %rbx
	.loc 1 196 18 discriminator 1 view .LVU158
	cmpl	%esi, %eax
	jle	.L54
	.loc 1 200 5 is_stmt 1 view .LVU159
	.loc 1 200 28 is_stmt 0 view .LVU160
	movq	8(%rdi), %rcx
	.loc 1 200 21 view .LVU161
	movslq	%esi, %rdx
	leaq	0(,%rdx,8), %r13
	.loc 1 200 28 view .LVU162
	movq	(%rcx,%rdx,8), %rdi
.LVL36:
	.loc 1 200 7 view .LVU163
	testq	%rdi, %rdi
	je	.L50
	.loc 1 201 9 is_stmt 1 view .LVU164
	call	mem_free@PLT
.LVL37:
	.loc 1 201 9 is_stmt 0 view .LVU165
	movl	(%rbx), %eax
.L50:
.LVL38:
	.loc 1 205 17 is_stmt 1 discriminator 1 view .LVU166
	.loc 1 205 32 is_stmt 0 discriminator 1 view .LVU167
	leal	-1(%rax), %r12d
	.loc 1 205 5 discriminator 1 view .LVU168
	cmpl	%r12d, %ebp
	jge	.L52
	movq	8(%rbx), %rdi
	.loc 1 206 26 view .LVU169
	subl	%ebp, %eax
	subl	$2, %eax
	leaq	8(%rdi,%r13), %rsi
	leaq	8(,%rax,8), %rdx
	addq	%r13, %rdi
	call	memmove@PLT
.LVL39:
.L52:
	.loc 1 209 5 is_stmt 1 view .LVU170
	.loc 1 209 18 is_stmt 0 view .LVU171
	movl	%r12d, (%rbx)
	.loc 1 211 5 is_stmt 1 view .LVU172
	.loc 1 211 12 is_stmt 0 view .LVU173
	xorl	%eax, %eax
.LVL40:
.L48:
	.loc 1 212 1 view .LVU174
	addq	$8, %rsp
	.cfi_remember_state
	.cfi_def_cfa_offset 40
	popq	%rbx
	.cfi_def_cfa_offset 32
	popq	%rbp
	.cfi_def_cfa_offset 24
.LVL41:
	.loc 1 212 1 view .LVU175
	popq	%r12
	.cfi_def_cfa_offset 16
	popq	%r13
	.cfi_def_cfa_offset 8
	ret
.LVL42:
.L54:
	.cfi_restore_state
	.loc 1 197 16 view .LVU176
	movl	$-1, %eax
	jmp	.L48
.L59:
	.cfi_def_cfa_offset 8
	.cfi_restore 3
	.cfi_restore 6
	.cfi_restore 12
	.cfi_restore 13
	.loc 1 197 16 view .LVU177
	orl	$-1, %eax
	.loc 1 212 1 view .LVU178
	ret
	.cfi_endproc
.LFE5:
	.size	array_none_remove_node_at_d, .-array_none_remove_node_at_d
	.p2align 4
	.globl	array_none_get_node_index
	.type	array_none_get_node_index, @function
array_none_get_node_index:
.LVL43:
.LFB12:
	.loc 1 332 1 is_stmt 1 view -0
	.cfi_startproc
	.loc 1 332 1 is_stmt 0 view .LVU180
	endbr64
	.loc 1 333 5 is_stmt 1 view .LVU181
	.loc 1 333 7 is_stmt 0 view .LVU182
	testq	%rdi, %rdi
	je	.L67
	testq	%rsi, %rsi
	je	.L67
.LVL44:
.LBB6:
.LBB7:
	.loc 1 337 13 is_stmt 1 view .LVU183
	.loc 1 337 22 is_stmt 0 view .LVU184
	movl	(%rdi), %ecx
	.loc 1 337 5 view .LVU185
	testl	%ecx, %ecx
	jle	.L67
	.loc 1 338 9 is_stmt 1 view .LVU186
	.loc 1 338 28 is_stmt 0 view .LVU187
	movq	8(%rdi), %rdx
	.loc 1 337 10 view .LVU188
	xorl	%eax, %eax
	.loc 1 338 11 view .LVU189
	cmpq	%rsi, %rdx
	jne	.L64
	jmp	.L62
.LVL45:
	.p2align 4,,10
	.p2align 3
.L65:
	.loc 1 338 9 is_stmt 1 view .LVU190
	addq	$8, %rdx
	.loc 1 338 11 is_stmt 0 view .LVU191
	cmpq	%rdx, %rsi
	je	.L62
.LVL46:
.L64:
	.loc 1 337 29 is_stmt 1 view .LVU192
	.loc 1 337 30 is_stmt 0 view .LVU193
	addl	$1, %eax
.LVL47:
	.loc 1 337 13 is_stmt 1 view .LVU194
	.loc 1 337 5 is_stmt 0 view .LVU195
	cmpl	%ecx, %eax
	jne	.L65
.LVL48:
.L67:
	.loc 1 337 5 view .LVU196
.LBE7:
.LBE6:
	.loc 1 334 16 view .LVU197
	movl	$-1, %eax
	ret
	.p2align 4,,10
	.p2align 3
.L62:
	.loc 1 343 1 view .LVU198
	ret
	.cfi_endproc
.LFE12:
	.size	array_none_get_node_index, .-array_none_get_node_index
	.p2align 4
	.globl	array_none_remove_node
	.type	array_none_remove_node, @function
array_none_remove_node:
.LVL49:
.LFB6:
	.loc 1 223 1 is_stmt 1 view -0
	.cfi_startproc
	.loc 1 223 1 is_stmt 0 view .LVU200
	endbr64
	.loc 1 224 5 is_stmt 1 view .LVU201
	.loc 1 224 7 is_stmt 0 view .LVU202
	testq	%rdi, %rdi
	je	.L75
	testq	%rsi, %rsi
	je	.L75
	.loc 1 223 1 view .LVU203
	pushq	%rbp
	.cfi_def_cfa_offset 16
	.cfi_offset 6, -16
	movq	%rdi, %rbp
	.loc 1 227 5 is_stmt 1 view .LVU204
	.loc 1 227 17 is_stmt 0 view .LVU205
	call	array_none_get_node_index@PLT
.LVL50:
	.loc 1 227 17 view .LVU206
	movl	%eax, %esi
.LVL51:
	.loc 1 228 5 is_stmt 1 view .LVU207
	.loc 1 228 7 is_stmt 0 view .LVU208
	testl	%eax, %eax
	js	.L72
	.loc 1 231 5 is_stmt 1 view .LVU209
	.loc 1 231 12 is_stmt 0 view .LVU210
	movq	%rbp, %rdi
	.loc 1 232 1 view .LVU211
	popq	%rbp
	.cfi_remember_state
	.cfi_restore 6
	.cfi_def_cfa_offset 8
.LVL52:
	.loc 1 231 12 view .LVU212
	jmp	array_none_remove_node_at@PLT
.LVL53:
	.p2align 4,,10
	.p2align 3
.L72:
	.cfi_restore_state
	.loc 1 232 1 view .LVU213
	movl	$-1, %eax
.LVL54:
	.loc 1 232 1 view .LVU214
	popq	%rbp
	.cfi_def_cfa_offset 8
.LVL55:
	.loc 1 232 1 view .LVU215
	ret
.LVL56:
.L75:
	.cfi_restore 6
	.loc 1 232 1 view .LVU216
	orl	$-1, %eax
	ret
	.cfi_endproc
.LFE6:
	.size	array_none_remove_node, .-array_none_remove_node
	.p2align 4
	.globl	array_none_remove_node_d
	.type	array_none_remove_node_d, @function
array_none_remove_node_d:
.LVL57:
.LFB7:
	.loc 1 243 1 is_stmt 1 view -0
	.cfi_startproc
	.loc 1 243 1 is_stmt 0 view .LVU218
	endbr64
	.loc 1 244 5 is_stmt 1 view .LVU219
	.loc 1 244 7 is_stmt 0 view .LVU220
	testq	%rdi, %rdi
	je	.L84
	testq	%rsi, %rsi
	je	.L84
	.loc 1 243 1 view .LVU221
	pushq	%rbp
	.cfi_def_cfa_offset 16
	.cfi_offset 6, -16
	movq	%rdi, %rbp
	.loc 1 247 5 is_stmt 1 view .LVU222
	.loc 1 247 17 is_stmt 0 view .LVU223
	call	array_none_get_node_index@PLT
.LVL58:
	.loc 1 247 17 view .LVU224
	movl	%eax, %esi
.LVL59:
	.loc 1 248 5 is_stmt 1 view .LVU225
	.loc 1 248 7 is_stmt 0 view .LVU226
	testl	%eax, %eax
	js	.L81
	.loc 1 251 5 is_stmt 1 view .LVU227
	.loc 1 251 12 is_stmt 0 view .LVU228
	movq	%rbp, %rdi
	.loc 1 252 1 view .LVU229
	popq	%rbp
	.cfi_remember_state
	.cfi_restore 6
	.cfi_def_cfa_offset 8
.LVL60:
	.loc 1 251 12 view .LVU230
	jmp	array_none_remove_node_at_d@PLT
.LVL61:
	.p2align 4,,10
	.p2align 3
.L81:
	.cfi_restore_state
	.loc 1 252 1 view .LVU231
	movl	$-1, %eax
.LVL62:
	.loc 1 252 1 view .LVU232
	popq	%rbp
	.cfi_def_cfa_offset 8
.LVL63:
	.loc 1 252 1 view .LVU233
	ret
.LVL64:
.L84:
	.cfi_restore 6
	.loc 1 252 1 view .LVU234
	orl	$-1, %eax
	ret
	.cfi_endproc
.LFE7:
	.size	array_none_remove_node_d, .-array_none_remove_node_d
	.p2align 4
	.globl	array_none_find_node_index
	.type	array_none_find_node_index, @function
array_none_find_node_index:
.LVL65:
.LFB14:
	.loc 1 373 1 is_stmt 1 view -0
	.cfi_startproc
	.loc 1 373 1 is_stmt 0 view .LVU236
	endbr64
	.loc 1 374 5 is_stmt 1 view .LVU237
	.loc 1 374 7 is_stmt 0 view .LVU238
	testq	%rdi, %rdi
	je	.L91
.LVL66:
.LBB10:
.LBB11:
	.loc 1 378 13 is_stmt 1 view .LVU239
	.loc 1 378 22 is_stmt 0 view .LVU240
	movl	(%rdi), %eax
	.loc 1 378 5 view .LVU241
	testl	%eax, %eax
	jle	.L91
	.loc 1 379 27 view .LVU242
	movq	8(%rdi), %rcx
	leal	-1(%rax), %edi
.LVL67:
	.loc 1 379 27 view .LVU243
	xorl	%eax, %eax
	jmp	.L89
.LVL68:
	.p2align 4,,10
	.p2align 3
.L93:
	.loc 1 378 29 is_stmt 1 view .LVU244
	.loc 1 378 13 view .LVU245
	leaq	1(%rax), %rdx
	.loc 1 378 5 is_stmt 0 view .LVU246
	cmpq	%rax, %rdi
	je	.L91
	.loc 1 378 5 view .LVU247
	movq	%rdx, %rax
.LVL69:
.L89:
	.loc 1 378 5 view .LVU248
	movl	%eax, %r8d
.LVL70:
	.loc 1 379 9 is_stmt 1 view .LVU249
	.loc 1 379 11 is_stmt 0 view .LVU250
	cmpq	(%rcx,%rax,8), %rsi
	jne	.L93
.LBE11:
.LBE10:
	.loc 1 384 1 view .LVU251
	movl	%r8d, %eax
	.loc 1 384 1 view .LVU252
	ret
.LVL71:
	.p2align 4,,10
	.p2align 3
.L91:
	.loc 1 375 16 view .LVU253
	movl	$-1, %r8d
	.loc 1 384 1 view .LVU254
	movl	%r8d, %eax
	ret
	.cfi_endproc
.LFE14:
	.size	array_none_find_node_index, .-array_none_find_node_index
	.p2align 4
	.globl	array_none_move_node
	.type	array_none_move_node, @function
array_none_move_node:
.LVL72:
.LFB16:
	.loc 1 419 1 is_stmt 1 view -0
	.cfi_startproc
	.loc 1 419 1 is_stmt 0 view .LVU256
	endbr64
	.loc 1 420 5 is_stmt 1 view .LVU257
	.loc 1 423 5 view .LVU258
	.loc 1 419 1 is_stmt 0 view .LVU259
	pushq	%r13
	.cfi_def_cfa_offset 16
	.cfi_offset 13, -16
	pushq	%r12
	.cfi_def_cfa_offset 24
	.cfi_offset 12, -24
	pushq	%rbp
	.cfi_def_cfa_offset 32
	.cfi_offset 6, -32
	pushq	%rbx
	.cfi_def_cfa_offset 40
	.cfi_offset 3, -40
	subq	$8, %rsp
	.cfi_def_cfa_offset 48
	.loc 1 423 7 view .LVU260
	testl	%esi, %esi
	js	.L98
	testq	%rdi, %rdi
	je	.L98
	movslq	%edx, %rbx
	.loc 1 423 45 discriminator 1 view .LVU261
	cmpl	%ebx, %esi
	movl	%ebx, %eax
	cmovge	%esi, %eax
	cmpl	%eax, (%rdi)
	jle	.L98
	testl	%ebx, %ebx
	js	.L98
	.loc 1 426 5 is_stmt 1 view .LVU262
	.loc 1 426 7 is_stmt 0 view .LVU263
	cmpl	%ebx, %esi
	jl	.L101
	.loc 1 434 12 is_stmt 1 view .LVU264
	.loc 1 443 12 is_stmt 0 view .LVU265
	movl	$0, %r12d
	.loc 1 434 14 view .LVU266
	jle	.L94
.LVL73:
.LBB17:
.LBI17:
	.loc 1 418 5 is_stmt 1 view .LVU267
.LBB18:
	.loc 1 436 9 view .LVU268
	.loc 1 436 39 is_stmt 0 view .LVU269
	movq	8(%rdi), %rbp
	.loc 1 436 45 view .LVU270
	movslq	%esi, %rdx
.LVL74:
	.loc 1 439 30 view .LVU271
	subl	%ebx, %esi
.LVL75:
	.loc 1 436 45 view .LVU272
	leaq	0(,%rdx,8), %rax
	.loc 1 436 25 view .LVU273
	movq	0(%rbp,%rdx,8), %r13
.LVL76:
	.loc 1 437 9 is_stmt 1 view .LVU274
	.loc 1 438 9 view .LVU275
	.loc 1 438 17 view .LVU276
	.loc 1 439 30 is_stmt 0 view .LVU277
	leal	-1(%rsi), %edx
.LVL77:
	.loc 1 439 30 view .LVU278
	movq	%rdx, %rdi
.LVL78:
	.loc 1 439 30 view .LVU279
	leaq	8(,%rdx,8), %rdx
	negq	%rdi
	salq	$3, %rdi
	leaq	-8(%rax,%rdi), %rsi
	addq	%rdi, %rax
	addq	%rbp, %rsi
	leaq	0(%rbp,%rax), %rdi
	call	memmove@PLT
.LVL79:
	.loc 1 441 9 is_stmt 1 view .LVU280
	.loc 1 441 26 is_stmt 0 view .LVU281
	movq	%r13, 0(%rbp,%rbx,8)
.LVL80:
.L94:
	.loc 1 441 26 view .LVU282
.LBE18:
.LBE17:
	.loc 1 444 1 view .LVU283
	addq	$8, %rsp
	.cfi_remember_state
	.cfi_def_cfa_offset 40
	movl	%r12d, %eax
	popq	%rbx
	.cfi_def_cfa_offset 32
	popq	%rbp
	.cfi_def_cfa_offset 24
	popq	%r12
	.cfi_def_cfa_offset 16
	popq	%r13
	.cfi_def_cfa_offset 8
	ret
.LVL81:
	.p2align 4,,10
	.p2align 3
.L101:
	.cfi_restore_state
.LBB19:
	.loc 1 428 9 is_stmt 1 view .LVU284
	.loc 1 428 39 is_stmt 0 view .LVU285
	movq	8(%rdi), %r12
	.loc 1 428 45 view .LVU286
	movslq	%esi, %rax
	.loc 1 431 30 view .LVU287
	leal	-1(%rbx), %edx
.LVL82:
	.loc 1 428 45 view .LVU288
	salq	$3, %rax
	.loc 1 431 30 view .LVU289
	subl	%esi, %edx
	.loc 1 428 45 view .LVU290
	leaq	(%r12,%rax), %rdi
.LVL83:
	.loc 1 428 45 view .LVU291
	leaq	8(%r12,%rax), %rsi
.LVL84:
	.loc 1 428 25 view .LVU292
	movq	(%rdi), %rbp
.LVL85:
	.loc 1 429 9 is_stmt 1 view .LVU293
	.loc 1 430 9 view .LVU294
	.loc 1 430 17 view .LVU295
	.loc 1 431 30 is_stmt 0 view .LVU296
	leaq	8(,%rdx,8), %rdx
	call	memmove@PLT
.LVL86:
	.loc 1 433 9 is_stmt 1 view .LVU297
	.loc 1 433 26 is_stmt 0 view .LVU298
	movq	%rbp, (%r12,%rbx,8)
.LVL87:
	.loc 1 433 26 view .LVU299
.LBE19:
	.loc 1 444 1 view .LVU300
	addq	$8, %rsp
	.cfi_remember_state
	.cfi_def_cfa_offset 40
	.loc 1 443 12 view .LVU301
	xorl	%r12d, %r12d
	.loc 1 444 1 view .LVU302
	popq	%rbx
	.cfi_def_cfa_offset 32
.LVL88:
	.loc 1 444 1 view .LVU303
	movl	%r12d, %eax
	popq	%rbp
	.cfi_def_cfa_offset 24
	popq	%r12
	.cfi_def_cfa_offset 16
	popq	%r13
	.cfi_def_cfa_offset 8
	ret
.LVL89:
.L98:
	.cfi_restore_state
	.loc 1 424 16 view .LVU304
	movl	$-1, %r12d
	jmp	.L94
	.cfi_endproc
.LFE16:
	.size	array_none_move_node, .-array_none_move_node
	.p2align 4
	.globl	array_none_delete_all_node_d
	.type	array_none_delete_all_node_d, @function
array_none_delete_all_node_d:
.LVL90:
.LFB9:
	.loc 1 274 1 is_stmt 1 view -0
	.cfi_startproc
	.loc 1 274 1 is_stmt 0 view .LVU306
	endbr64
	.loc 1 275 5 is_stmt 1 view .LVU307
	.loc 1 275 7 is_stmt 0 view .LVU308
	testq	%rdi, %rdi
	je	.L114
	.loc 1 274 1 view .LVU309
	pushq	%rbp
	.cfi_def_cfa_offset 16
	.cfi_offset 6, -16
	movq	%rdi, %rbp
.LVL91:
.LBB22:
.LBB23:
	.loc 1 280 13 is_stmt 1 view .LVU310
.LBE23:
.LBE22:
	.loc 1 274 1 is_stmt 0 view .LVU311
	pushq	%rbx
	.cfi_def_cfa_offset 24
	.cfi_offset 3, -24
.LBB26:
.LBB24:
	.loc 1 280 5 view .LVU312
	xorl	%ebx, %ebx
.LBE24:
.LBE26:
	.loc 1 274 1 view .LVU313
	subq	$8, %rsp
	.cfi_def_cfa_offset 32
.LBB27:
.LBB25:
	.loc 1 280 22 view .LVU314
	movl	(%rdi), %eax
	.loc 1 280 5 view .LVU315
	testl	%eax, %eax
	jg	.L117
	jmp	.L107
.LVL92:
	.p2align 4,,10
	.p2align 3
.L118:
	.loc 1 282 13 is_stmt 1 view .LVU316
	call	mem_free@PLT
.LVL93:
	movl	0(%rbp), %eax
	.loc 1 280 29 view .LVU317
.LVL94:
	.loc 1 280 13 view .LVU318
	addq	$1, %rbx
.LVL95:
	.loc 1 280 5 is_stmt 0 view .LVU319
	cmpl	%ebx, %eax
	jle	.L107
.L117:
	.loc 1 280 5 view .LVU320
	movq	8(%rbp), %rdx
.L104:
.LVL96:
	.loc 1 281 9 is_stmt 1 view .LVU321
	.loc 1 281 28 is_stmt 0 view .LVU322
	movq	(%rdx,%rbx,8), %rdi
	.loc 1 281 11 view .LVU323
	testq	%rdi, %rdi
	jne	.L118
	.loc 1 280 29 is_stmt 1 view .LVU324
.LVL97:
	.loc 1 280 13 view .LVU325
	addq	$1, %rbx
.LVL98:
	.loc 1 280 5 is_stmt 0 view .LVU326
	cmpl	%ebx, %eax
	jg	.L104
.L107:
	.loc 1 286 5 is_stmt 1 view .LVU327
	.loc 1 286 19 is_stmt 0 view .LVU328
	movl	$0, 0(%rbp)
.LBE25:
.LBE27:
	.loc 1 287 1 view .LVU329
	addq	$8, %rsp
	.cfi_def_cfa_offset 24
	popq	%rbx
	.cfi_def_cfa_offset 16
	popq	%rbp
	.cfi_def_cfa_offset 8
.LVL99:
	.loc 1 287 1 view .LVU330
	ret
.LVL100:
	.p2align 4,,10
	.p2align 3
.L114:
	.cfi_restore 3
	.cfi_restore 6
	.loc 1 287 1 view .LVU331
	ret
	.cfi_endproc
.LFE9:
	.size	array_none_delete_all_node_d, .-array_none_delete_all_node_d
	.p2align 4
	.globl	array_none_destroy
	.type	array_none_destroy, @function
array_none_destroy:
.LVL101:
.LFB10:
	.loc 1 295 1 is_stmt 1 view -0
	.cfi_startproc
	.loc 1 295 1 is_stmt 0 view .LVU333
	endbr64
	.loc 1 296 5 is_stmt 1 view .LVU334
	.loc 1 296 7 is_stmt 0 view .LVU335
	testq	%rdi, %rdi
	je	.L119
	.loc 1 295 1 view .LVU336
	pushq	%rbp
	.cfi_def_cfa_offset 16
	.cfi_offset 6, -16
	movq	%rdi, %rbp
.LVL102:
.LBB30:
.LBI30:
	.loc 1 294 6 is_stmt 1 view .LVU337
.LBB31:
	.loc 1 299 5 view .LVU338
	movq	8(%rdi), %rdi
.LVL103:
	.loc 1 299 5 is_stmt 0 view .LVU339
	call	mem_free@PLT
.LVL104:
	.loc 1 300 5 is_stmt 1 view .LVU340
	movq	%rbp, %rdi
.LBE31:
.LBE30:
	.loc 1 301 1 is_stmt 0 view .LVU341
	popq	%rbp
	.cfi_restore 6
	.cfi_def_cfa_offset 8
.LVL105:
.LBB33:
.LBB32:
	.loc 1 300 5 view .LVU342
	jmp	mem_free@PLT
.LVL106:
	.p2align 4,,10
	.p2align 3
.L119:
	.loc 1 300 5 view .LVU343
	ret
.LBE32:
.LBE33:
	.cfi_endproc
.LFE10:
	.size	array_none_destroy, .-array_none_destroy
	.p2align 4
	.globl	array_none_destroy_d
	.type	array_none_destroy_d, @function
array_none_destroy_d:
.LVL107:
.LFB11:
	.loc 1 309 1 is_stmt 1 view -0
	.cfi_startproc
	.loc 1 309 1 is_stmt 0 view .LVU345
	endbr64
	.loc 1 310 5 is_stmt 1 view .LVU346
	.loc 1 310 7 is_stmt 0 view .LVU347
	testq	%rdi, %rdi
	je	.L124
	.loc 1 309 1 view .LVU348
	pushq	%rbp
	.cfi_def_cfa_offset 16
	.cfi_offset 6, -16
	movq	%rdi, %rbp
.LVL108:
.LBB36:
.LBB37:
	.loc 1 314 13 is_stmt 1 view .LVU349
.LBE37:
.LBE36:
	.loc 1 309 1 is_stmt 0 view .LVU350
	pushq	%rbx
	.cfi_def_cfa_offset 24
	.cfi_offset 3, -24
	subq	$8, %rsp
	.cfi_def_cfa_offset 32
.LBB41:
.LBB38:
	.loc 1 314 22 view .LVU351
	movl	(%rdi), %eax
	movq	8(%rdi), %r8
	.loc 1 314 5 view .LVU352
	testl	%eax, %eax
	jle	.L126
	xorl	%ebx, %ebx
.LVL109:
	.p2align 4,,10
	.p2align 3
.L130:
	.loc 1 315 9 is_stmt 1 view .LVU353
	.loc 1 315 28 is_stmt 0 view .LVU354
	movq	(%r8,%rbx,8), %rdi
	.loc 1 315 11 view .LVU355
	testq	%rdi, %rdi
	je	.L127
	.loc 1 316 13 is_stmt 1 view .LVU356
	call	mem_free@PLT
.LVL110:
	movl	0(%rbp), %eax
	addq	$1, %rbx
.LVL111:
	.loc 1 316 13 is_stmt 0 view .LVU357
	movq	8(%rbp), %r8
	.loc 1 314 29 is_stmt 1 view .LVU358
	.loc 1 314 13 view .LVU359
	.loc 1 314 5 is_stmt 0 view .LVU360
	cmpl	%ebx, %eax
	jg	.L130
.L126:
	.loc 1 319 5 is_stmt 1 view .LVU361
	movq	%r8, %rdi
	call	mem_free@PLT
.LVL112:
	.loc 1 320 5 view .LVU362
.LBE38:
.LBE41:
	.loc 1 321 1 is_stmt 0 view .LVU363
	addq	$8, %rsp
	.cfi_remember_state
	.cfi_def_cfa_offset 24
.LBB42:
.LBB39:
	.loc 1 320 5 view .LVU364
	movq	%rbp, %rdi
.LBE39:
.LBE42:
	.loc 1 321 1 view .LVU365
	popq	%rbx
	.cfi_restore 3
	.cfi_def_cfa_offset 16
	popq	%rbp
	.cfi_restore 6
	.cfi_def_cfa_offset 8
.LVL113:
.LBB43:
.LBB40:
	.loc 1 320 5 view .LVU366
	jmp	mem_free@PLT
.LVL114:
	.p2align 4,,10
	.p2align 3
.L127:
	.cfi_restore_state
	.loc 1 314 29 is_stmt 1 view .LVU367
	.loc 1 314 13 view .LVU368
	addq	$1, %rbx
.LVL115:
	.loc 1 314 5 is_stmt 0 view .LVU369
	cmpl	%ebx, %eax
	jg	.L130
	jmp	.L126
.LVL116:
	.p2align 4,,10
	.p2align 3
.L124:
	.cfi_def_cfa_offset 8
	.cfi_restore 3
	.cfi_restore 6
	.loc 1 314 5 view .LVU370
	ret
.LBE40:
.LBE43:
	.cfi_endproc
.LFE11:
	.size	array_none_destroy_d, .-array_none_destroy_d
	.p2align 4
	.globl	init_array_none
	.type	init_array_none, @function
init_array_none:
.LFB0:
	.loc 1 20 1 is_stmt 1 view -0
	.cfi_startproc
	endbr64
	.loc 1 21 5 view .LVU372
	.loc 1 20 1 is_stmt 0 view .LVU373
	pushq	%r12
	.cfi_def_cfa_offset 16
	.cfi_offset 12, -16
	.loc 1 21 39 view .LVU374
	movl	$144, %edi
	call	mem_malloc@PLT
.LVL117:
	movq	%rax, %r12
.LVL118:
	.loc 1 22 5 is_stmt 1 view .LVU375
	.loc 1 22 7 is_stmt 0 view .LVU376
	testq	%rax, %rax
	je	.L134
	.loc 1 26 5 is_stmt 1 view .LVU377
	.loc 1 26 24 is_stmt 0 view .LVU378
	movl	$102400, 4(%rax)
	.loc 1 27 5 is_stmt 1 view .LVU379
	.loc 1 27 42 is_stmt 0 view .LVU380
	movl	$819200, %edi
	call	mem_malloc@PLT
.LVL119:
	.loc 1 27 21 view .LVU381
	movq	%rax, 8(%r12)
	.loc 1 28 5 is_stmt 1 view .LVU382
	.loc 1 28 7 is_stmt 0 view .LVU383
	testq	%rax, %rax
	je	.L141
	.loc 1 33 5 is_stmt 1 view .LVU384
	.loc 1 36 29 is_stmt 0 view .LVU385
	movq	array_none_insert_node_head@GOTPCREL(%rip), %xmm0
	.loc 1 33 21 view .LVU386
	movl	$0, (%r12)
	.loc 1 36 5 is_stmt 1 view .LVU387
	.loc 1 37 5 view .LVU388
	.loc 1 38 5 view .LVU389
	.loc 1 40 5 view .LVU390
	.loc 1 41 5 view .LVU391
	.loc 1 42 5 view .LVU392
	.loc 1 43 5 view .LVU393
	.loc 1 45 5 view .LVU394
	.loc 1 46 5 view .LVU395
	.loc 1 48 5 view .LVU396
	.loc 1 49 5 view .LVU397
	.loc 1 51 5 view .LVU398
	.loc 1 52 5 view .LVU399
	.loc 1 54 5 view .LVU400
	.loc 1 56 5 view .LVU401
	.loc 1 57 5 view .LVU402
	.loc 1 36 29 is_stmt 0 view .LVU403
	movhps	array_none_insert_node_tail@GOTPCREL(%rip), %xmm0
	movups	%xmm0, 16(%r12)
	movq	array_none_insert_at@GOTPCREL(%rip), %xmm0
	movhps	array_none_remove_node_at@GOTPCREL(%rip), %xmm0
	movups	%xmm0, 32(%r12)
	movq	array_none_remove_node_at_d@GOTPCREL(%rip), %xmm0
	movhps	array_none_remove_node@GOTPCREL(%rip), %xmm0
	movups	%xmm0, 48(%r12)
	movq	array_none_remove_node_d@GOTPCREL(%rip), %xmm0
	movhps	array_none_delete_all_node@GOTPCREL(%rip), %xmm0
	movups	%xmm0, 64(%r12)
	movq	array_none_delete_all_node_d@GOTPCREL(%rip), %xmm0
	movhps	array_none_destroy@GOTPCREL(%rip), %xmm0
	movups	%xmm0, 80(%r12)
	movq	array_none_destroy_d@GOTPCREL(%rip), %xmm0
	movhps	array_none_get_node_index@GOTPCREL(%rip), %xmm0
	movups	%xmm0, 96(%r12)
	movq	array_none_get_node_at@GOTPCREL(%rip), %xmm0
	movhps	array_none_find_node_index@GOTPCREL(%rip), %xmm0
	movups	%xmm0, 112(%r12)
	movq	array_none_swap_node@GOTPCREL(%rip), %xmm0
	movhps	array_none_move_node@GOTPCREL(%rip), %xmm0
	movups	%xmm0, 128(%r12)
	.loc 1 59 5 is_stmt 1 view .LVU404
.LVL120:
.L134:
	.loc 1 60 1 is_stmt 0 view .LVU405
	movq	%r12, %rax
	popq	%r12
	.cfi_remember_state
	.cfi_def_cfa_offset 8
	ret
.LVL121:
	.p2align 4,,10
	.p2align 3
.L141:
	.cfi_restore_state
	.loc 1 29 9 is_stmt 1 view .LVU406
	movq	%r12, %rdi
	.loc 1 30 16 is_stmt 0 view .LVU407
	xorl	%r12d, %r12d
.LVL122:
	.loc 1 29 9 view .LVU408
	call	mem_free@PLT
.LVL123:
	.loc 1 30 9 is_stmt 1 view .LVU409
	.loc 1 30 16 is_stmt 0 view .LVU410
	jmp	.L134
	.cfi_endproc
.LFE0:
	.size	init_array_none, .-init_array_none
	.p2align 4
	.globl	test
	.type	test, @function
test:
.LFB17:
	.loc 1 446 12 is_stmt 1 view -0
	.cfi_startproc
	endbr64
	pushq	%r12
	.cfi_def_cfa_offset 16
	.cfi_offset 12, -16
	pushq	%rbp
	.cfi_def_cfa_offset 24
	.cfi_offset 6, -24
	pushq	%rbx
	.cfi_def_cfa_offset 32
	.cfi_offset 3, -32
	subq	$48, %rsp
	.cfi_def_cfa_offset 80
	.loc 1 446 12 is_stmt 0 view .LVU412
	movq	%fs:40, %rax
	movq	%rax, 40(%rsp)
	xorl	%eax, %eax
	.loc 1 447 5 is_stmt 1 view .LVU413
	.loc 1 447 25 is_stmt 0 view .LVU414
	call	init_array_none@PLT
.LVL124:
	.loc 1 448 2 is_stmt 1 view .LVU415
	.loc 1 448 4 is_stmt 0 view .LVU416
	testq	%rax, %rax
	je	.L142
	movq	%rax, %rbp
	xorl	%ebx, %ebx
	movq	%rsp, %r12
.LVL125:
	.p2align 4,,10
	.p2align 3
.L143:
	.loc 1 454 3 is_stmt 1 discriminator 3 view .LVU417
	.loc 1 454 11 is_stmt 0 discriminator 3 view .LVU418
	movl	%ebx, (%r12,%rbx,4)
	.loc 1 455 3 is_stmt 1 discriminator 3 view .LVU419
	leaq	(%r12,%rbx,4), %rsi
	addq	$1, %rbx
.LVL126:
	.loc 1 455 3 is_stmt 0 discriminator 3 view .LVU420
	movq	%rbp, %rdi
	call	*24(%rbp)
.LVL127:
	.loc 1 453 15 is_stmt 1 discriminator 3 view .LVU421
	.loc 1 453 10 discriminator 3 view .LVU422
	.loc 1 453 2 is_stmt 0 discriminator 3 view .LVU423
	cmpq	$10, %rbx
	jne	.L143
	.loc 1 459 2 is_stmt 1 view .LVU424
	movq	%rbp, %rdi
	movl	$5, %edx
	movl	$3, %esi
	call	*136(%rbp)
.LVL128:
	.loc 1 461 2 view .LVU425
	.loc 1 461 10 view .LVU426
	.loc 1 464 2 view .LVU427
	movq	%rbp, %rdi
	call	*88(%rbp)
.LVL129:
.L142:
	.loc 1 465 1 is_stmt 0 view .LVU428
	movq	40(%rsp), %rax
	xorq	%fs:40, %rax
	jne	.L150
	addq	$48, %rsp
	.cfi_remember_state
	.cfi_def_cfa_offset 32
	popq	%rbx
	.cfi_def_cfa_offset 24
	popq	%rbp
	.cfi_def_cfa_offset 16
	popq	%r12
	.cfi_def_cfa_offset 8
	ret
.L150:
	.cfi_restore_state
	call	__stack_chk_fail@PLT
.LVL130:
	.cfi_endproc
.LFE17:
	.size	test, .-test
.Letext0:
	.file 2 "./array/mArray_none.h"
	.file 3 "./mem/mem_management.h"
	.file 4 "<built-in>"
	.section	.note.GNU-stack,"",@progbits
	.section	.note.gnu.property,"a"
	.align 8
	.long	 1f - 0f
	.long	 4f - 1f
	.long	 5
0:
	.string	 "GNU"
1:
	.align 8
	.long	 0xc0000002
	.long	 3f - 2f
2:
	.long	 0x3
3:
	.align 8
4:
