	.file	"mem_management.c"
	.text
.Ltext0:
	.p2align 4
	.type	mem_init, @function
mem_init:
.LFB0:
	.file 1 "./mem/mem_management.c"
	.loc 1 41 27 view -0
	.cfi_startproc
	endbr64
	.loc 1 42 5 view .LVU1
	.loc 1 43 5 view .LVU2
.LVL0:
	.loc 1 43 13 view .LVU3
	.loc 1 41 27 is_stmt 0 view .LVU4
	pushq	%rbx
	.cfi_def_cfa_offset 16
	.cfi_offset 3, -16
	movq	mem_dev@GOTPCREL(%rip), %rbx
	.loc 1 41 27 view .LVU5
	xorl	%eax, %eax
.LVL1:
	.p2align 4,,10
	.p2align 3
.L2:
	.loc 1 44 9 is_stmt 1 discriminator 3 view .LVU6
	.loc 1 44 28 is_stmt 0 discriminator 3 view .LVU7
	movq	16(%rbx), %rdx
	movb	$0, (%rdx,%rax)
	.loc 1 43 25 is_stmt 1 discriminator 3 view .LVU8
.LVL2:
	.loc 1 43 13 discriminator 3 view .LVU9
	addq	$1, %rax
.LVL3:
	.loc 1 43 5 is_stmt 0 discriminator 3 view .LVU10
	cmpq	$1048576, %rax
	jne	.L2
	movq	24(%rbx), %rdi
	movl	$65536, %edx
	xorl	%esi, %esi
	call	memset@PLT
.LVL4:
	.loc 1 49 5 is_stmt 1 view .LVU11
	.loc 1 49 20 is_stmt 0 view .LVU12
	movb	$1, 44(%rbx)
	.loc 1 50 1 view .LVU13
	popq	%rbx
	.cfi_def_cfa_offset 8
	ret
	.cfi_endproc
.LFE0:
	.size	mem_init, .-mem_init
	.section	.text.unlikely,"ax",@progbits
.LCOLDB1:
	.text
.LHOTB1:
	.p2align 4
	.section	.text.unlikely
.Ltext_cold0:
	.text
	.globl	mem_peruser
	.type	mem_peruser, @function
mem_peruser:
.LFB5:
	.loc 1 120 32 is_stmt 1 view -0
	.cfi_startproc
	endbr64
	.loc 1 121 5 view .LVU15
.LVL5:
	.loc 1 122 5 view .LVU16
	.loc 1 123 5 view .LVU17
	.loc 1 123 15 is_stmt 0 view .LVU18
	movq	mem_dev@GOTPCREL(%rip), %rdx
	movzbl	44(%rdx), %eax
	.loc 1 123 7 view .LVU19
	testb	%al, %al
	je	.L7
.LVL6:
	.loc 1 127 13 is_stmt 1 view .LVU20
	.loc 1 127 22 is_stmt 0 view .LVU21
	movl	36(%rdx), %ecx
	.loc 1 127 5 view .LVU22
	testl	%ecx, %ecx
	je	.L28
	leal	-1(%rcx), %eax
	.loc 1 128 19 view .LVU23
	movq	24(%rdx), %rsi
	cmpl	$6, %eax
	jbe	.L22
	movl	%ecx, %edx
	pxor	%xmm1, %xmm1
	pxor	%xmm2, %xmm2
	movq	%rsi, %rax
	shrl	$3, %edx
	movdqa	.LC0(%rip), %xmm4
	subl	$1, %edx
	salq	$4, %rdx
	leaq	16(%rsi,%rdx), %rdx
.LVL7:
	.p2align 4,,10
	.p2align 3
.L12:
	.loc 1 128 9 is_stmt 1 view .LVU24
	.loc 1 129 13 view .LVU25
	movdqu	(%rax), %xmm0
	addq	$16, %rax
	pcmpeqw	%xmm2, %xmm0
	pandn	%xmm4, %xmm0
	movdqa	%xmm0, %xmm3
	punpckhwd	%xmm2, %xmm0
	punpcklwd	%xmm2, %xmm3
	paddd	%xmm3, %xmm0
	paddd	%xmm0, %xmm1
	.loc 1 127 37 view .LVU26
	.loc 1 127 13 view .LVU27
	cmpq	%rdx, %rax
	jne	.L12
	movdqa	%xmm1, %xmm0
	movl	%ecx, %edx
	psrldq	$8, %xmm0
	andl	$-8, %edx
	paddd	%xmm0, %xmm1
	movdqa	%xmm1, %xmm0
	psrldq	$4, %xmm0
	paddd	%xmm0, %xmm1
	movd	%xmm1, %eax
	testb	$7, %cl
	je	.L13
.L11:
.LVL8:
	.loc 1 128 9 view .LVU28
	.loc 1 128 26 is_stmt 0 view .LVU29
	movl	%edx, %edi
	.loc 1 129 16 view .LVU30
	cmpw	$1, (%rsi,%rdi,2)
	.loc 1 127 38 view .LVU31
	leal	1(%rdx), %edi
	.loc 1 129 16 view .LVU32
	sbbl	$-1, %eax
.LVL9:
	.loc 1 127 37 is_stmt 1 view .LVU33
	.loc 1 127 13 view .LVU34
	.loc 1 127 5 is_stmt 0 view .LVU35
	cmpl	%ecx, %edi
	jnb	.L13
	.loc 1 128 9 is_stmt 1 view .LVU36
	.loc 1 129 16 is_stmt 0 view .LVU37
	cmpw	$1, (%rsi,%rdi,2)
	.loc 1 127 38 view .LVU38
	leal	2(%rdx), %edi
.LVL10:
	.loc 1 129 16 view .LVU39
	sbbl	$-1, %eax
.LVL11:
	.loc 1 127 37 is_stmt 1 view .LVU40
	.loc 1 127 13 view .LVU41
	.loc 1 127 5 is_stmt 0 view .LVU42
	cmpl	%edi, %ecx
	jbe	.L13
	.loc 1 128 9 is_stmt 1 view .LVU43
	.loc 1 129 16 is_stmt 0 view .LVU44
	cmpw	$1, (%rsi,%rdi,2)
	.loc 1 127 38 view .LVU45
	leal	3(%rdx), %edi
.LVL12:
	.loc 1 129 16 view .LVU46
	sbbl	$-1, %eax
.LVL13:
	.loc 1 127 37 is_stmt 1 view .LVU47
	.loc 1 127 13 view .LVU48
	.loc 1 127 5 is_stmt 0 view .LVU49
	cmpl	%edi, %ecx
	jbe	.L13
	.loc 1 128 9 is_stmt 1 view .LVU50
	.loc 1 129 16 is_stmt 0 view .LVU51
	cmpw	$1, (%rsi,%rdi,2)
	.loc 1 127 38 view .LVU52
	leal	4(%rdx), %edi
.LVL14:
	.loc 1 129 16 view .LVU53
	sbbl	$-1, %eax
.LVL15:
	.loc 1 127 37 is_stmt 1 view .LVU54
	.loc 1 127 13 view .LVU55
	.loc 1 127 5 is_stmt 0 view .LVU56
	cmpl	%edi, %ecx
	jbe	.L13
	.loc 1 128 9 is_stmt 1 view .LVU57
	.loc 1 129 16 is_stmt 0 view .LVU58
	cmpw	$1, (%rsi,%rdi,2)
	.loc 1 127 38 view .LVU59
	leal	5(%rdx), %edi
.LVL16:
	.loc 1 129 16 view .LVU60
	sbbl	$-1, %eax
.LVL17:
	.loc 1 127 37 is_stmt 1 view .LVU61
	.loc 1 127 13 view .LVU62
	.loc 1 127 5 is_stmt 0 view .LVU63
	cmpl	%edi, %ecx
	jbe	.L13
	.loc 1 128 9 is_stmt 1 view .LVU64
	.loc 1 129 16 is_stmt 0 view .LVU65
	cmpw	$1, (%rsi,%rdi,2)
	sbbl	$-1, %eax
.LVL18:
	.loc 1 127 37 is_stmt 1 view .LVU66
	.loc 1 127 38 is_stmt 0 view .LVU67
	addl	$6, %edx
.LVL19:
	.loc 1 127 13 is_stmt 1 view .LVU68
	.loc 1 127 5 is_stmt 0 view .LVU69
	cmpl	%edx, %ecx
	jbe	.L13
	.loc 1 128 9 is_stmt 1 view .LVU70
	.loc 1 129 16 is_stmt 0 view .LVU71
	cmpw	$1, (%rsi,%rdx,2)
	sbbl	$-1, %eax
.LVL20:
.L13:
	.loc 1 134 5 is_stmt 1 view .LVU72
	.loc 1 134 15 is_stmt 0 view .LVU73
	imull	$100, %eax, %eax
	.loc 1 134 19 view .LVU74
	xorl	%edx, %edx
	divl	%ecx
	.loc 1 135 1 view .LVU75
	ret
.LVL21:
	.p2align 4,,10
	.p2align 3
.L7:
	.loc 1 120 32 view .LVU76
	subq	$24, %rsp
	.cfi_def_cfa_offset 32
	movb	%al, 15(%rsp)
.LBB4:
.LBI4:
	.loc 1 120 15 is_stmt 1 view .LVU77
.LBB5:
	.loc 1 124 9 view .LVU78
	call	*(%rdx)
.LVL22:
	.loc 1 125 9 view .LVU79
	movzbl	15(%rsp), %eax
.LBE5:
.LBE4:
	.loc 1 135 1 is_stmt 0 view .LVU80
	addq	$24, %rsp
	.cfi_def_cfa_offset 8
	ret
.LVL23:
	.p2align 4,,10
	.p2align 3
.L22:
	.loc 1 127 10 view .LVU81
	xorl	%edx, %edx
	.loc 1 121 9 view .LVU82
	xorl	%eax, %eax
	jmp	.L11
.L28:
	jmp	.L24
	.cfi_endproc
	.section	.text.unlikely
	.cfi_startproc
	.type	mem_peruser.cold, @function
mem_peruser.cold:
.LFSB5:
.L24:
	.loc 1 134 5 is_stmt 1 view -0
	ud2
	.cfi_endproc
.LFE5:
	.text
	.size	mem_peruser, .-mem_peruser
	.section	.text.unlikely
	.size	mem_peruser.cold, .-mem_peruser.cold
.LCOLDE1:
	.text
.LHOTE1:
	.p2align 4
	.globl	mem_malloc
	.type	mem_malloc, @function
mem_malloc:
.LVL24:
.LFB2:
	.loc 1 84 36 view -0
	.cfi_startproc
	.loc 1 84 36 is_stmt 0 view .LVU85
	endbr64
	.loc 1 85 5 is_stmt 1 view .LVU86
	.loc 1 84 36 is_stmt 0 view .LVU87
	pushq	%rbp
	.cfi_def_cfa_offset 16
	.cfi_offset 6, -16
	pushq	%rbx
	.cfi_def_cfa_offset 24
	.cfi_offset 3, -24
	movl	%edi, %ebx
.LVL25:
.LBB8:
.LBI8:
	.loc 1 52 12 is_stmt 1 view .LVU88
.LBB9:
	.loc 1 53 5 view .LVU89
	.loc 1 54 5 view .LVU90
	.loc 1 55 5 view .LVU91
	.loc 1 56 5 view .LVU92
	.loc 1 57 5 view .LVU93
.LBE9:
.LBE8:
	.loc 1 84 36 is_stmt 0 view .LVU94
	subq	$8, %rsp
	.cfi_def_cfa_offset 32
.LBB13:
.LBB10:
	.loc 1 57 15 view .LVU95
	movq	mem_dev@GOTPCREL(%rip), %rbp
	.loc 1 57 7 view .LVU96
	cmpb	$0, 44(%rbp)
	jne	.L30
	.loc 1 58 9 is_stmt 1 view .LVU97
	call	*0(%rbp)
.LVL26:
.L30:
	.loc 1 60 5 view .LVU98
	.loc 1 60 7 is_stmt 0 view .LVU99
	testl	%ebx, %ebx
	je	.L37
	.loc 1 63 5 is_stmt 1 view .LVU100
	.loc 1 63 30 is_stmt 0 view .LVU101
	movl	40(%rbp), %ecx
	xorl	%edx, %edx
	movl	%ebx, %eax
	.loc 1 69 24 view .LVU102
	movq	24(%rbp), %rdi
	divl	%ecx
.LVL27:
	.loc 1 64 5 is_stmt 1 view .LVU103
	.loc 1 65 17 is_stmt 0 view .LVU104
	cmpl	$1, %edx
	.loc 1 67 33 view .LVU105
	movl	36(%rbp), %edx
	.loc 1 65 17 view .LVU106
	sbbl	$-1, %eax
.LVL28:
	.loc 1 67 5 is_stmt 1 view .LVU107
	.loc 1 67 11 is_stmt 0 view .LVU108
	leal	-1(%rdx), %esi
.LVL29:
	.loc 1 68 5 is_stmt 1 view .LVU109
	.loc 1 68 40 view .LVU110
	.loc 1 55 9 is_stmt 0 view .LVU111
	xorl	%edx, %edx
.LVL30:
	.p2align 4,,10
	.p2align 3
.L44:
	.loc 1 69 9 is_stmt 1 view .LVU112
	.loc 1 70 22 is_stmt 0 view .LVU113
	addl	$1, %edx
.LVL31:
	.loc 1 69 11 view .LVU114
	cmpw	$0, (%rdi,%rsi,2)
	je	.L34
	.loc 1 72 23 view .LVU115
	xorl	%edx, %edx
.LVL32:
.L34:
	.loc 1 74 9 is_stmt 1 view .LVU116
	.loc 1 74 11 is_stmt 0 view .LVU117
	cmpl	%edx, %eax
	je	.L56
	.loc 1 68 50 is_stmt 1 view .LVU118
	.loc 1 68 56 is_stmt 0 view .LVU119
	subq	$1, %rsi
.LVL33:
	.loc 1 68 40 is_stmt 1 view .LVU120
	.loc 1 68 5 is_stmt 0 view .LVU121
	cmpq	$-1, %rsi
	jne	.L44
.LVL34:
.L37:
	.loc 1 68 5 view .LVU122
.LBE10:
.LBE13:
	.loc 1 91 1 view .LVU123
	addq	$8, %rsp
	.cfi_remember_state
	.cfi_def_cfa_offset 24
	.loc 1 87 16 view .LVU124
	xorl	%eax, %eax
	.loc 1 91 1 view .LVU125
	popq	%rbx
	.cfi_def_cfa_offset 16
.LVL35:
	.loc 1 91 1 view .LVU126
	popq	%rbp
	.cfi_def_cfa_offset 8
	ret
.LVL36:
	.p2align 4,,10
	.p2align 3
.L56:
	.cfi_restore_state
.LBB14:
.LBB11:
	.loc 1 75 21 is_stmt 1 view .LVU127
	.loc 1 75 13 is_stmt 0 view .LVU128
	testl	%edx, %edx
	je	.L42
	leal	-1(%rdx), %eax
.LVL37:
	.loc 1 75 13 view .LVU129
	movl	%edx, %r10d
	cmpl	$6, %eax
	jbe	.L46
	movl	%edx, %r8d
	movd	%edx, %xmm0
	leaq	(%rdi,%rsi,2), %rax
	shrl	$3, %r8d
	punpcklwd	%xmm0, %xmm0
	subl	$1, %r8d
	pshufd	$0, %xmm0, %xmm0
	salq	$4, %r8
	addq	%rax, %r8
.LVL38:
	.p2align 4,,10
	.p2align 3
.L40:
	.loc 1 76 17 is_stmt 1 view .LVU130
	movq	%rax, %r9
	.loc 1 76 42 is_stmt 0 view .LVU131
	movups	%xmm0, (%rax)
	.loc 1 75 33 is_stmt 1 view .LVU132
	.loc 1 75 21 view .LVU133
	addq	$16, %rax
	cmpq	%r8, %r9
	jne	.L40
	movl	%edx, %eax
	andl	$-8, %eax
	testb	$7, %dl
	je	.L42
.L39:
.LVL39:
	.loc 1 76 17 view .LVU134
	.loc 1 76 38 is_stmt 0 view .LVU135
	movl	%eax, %r8d
	.loc 1 76 31 view .LVU136
	addq	%rsi, %r8
	.loc 1 76 42 view .LVU137
	movw	%r10w, (%rdi,%r8,2)
	.loc 1 75 33 is_stmt 1 view .LVU138
	.loc 1 75 34 is_stmt 0 view .LVU139
	leal	1(%rax), %r8d
.LVL40:
	.loc 1 75 21 is_stmt 1 view .LVU140
	.loc 1 75 13 is_stmt 0 view .LVU141
	cmpl	%r8d, %edx
	jbe	.L42
	.loc 1 76 17 is_stmt 1 view .LVU142
	.loc 1 76 31 is_stmt 0 view .LVU143
	addq	%rsi, %r8
.LVL41:
	.loc 1 76 42 view .LVU144
	movw	%r10w, (%rdi,%r8,2)
	.loc 1 75 33 is_stmt 1 view .LVU145
	.loc 1 75 34 is_stmt 0 view .LVU146
	leal	2(%rax), %r8d
.LVL42:
	.loc 1 75 21 is_stmt 1 view .LVU147
	.loc 1 75 13 is_stmt 0 view .LVU148
	cmpl	%r8d, %edx
	jbe	.L42
	.loc 1 76 17 is_stmt 1 view .LVU149
	.loc 1 76 31 is_stmt 0 view .LVU150
	addq	%rsi, %r8
.LVL43:
	.loc 1 76 42 view .LVU151
	movw	%r10w, (%rdi,%r8,2)
	.loc 1 75 33 is_stmt 1 view .LVU152
	.loc 1 75 34 is_stmt 0 view .LVU153
	leal	3(%rax), %r8d
.LVL44:
	.loc 1 75 21 is_stmt 1 view .LVU154
	.loc 1 75 13 is_stmt 0 view .LVU155
	cmpl	%r8d, %edx
	jbe	.L42
	.loc 1 76 17 is_stmt 1 view .LVU156
	.loc 1 76 31 is_stmt 0 view .LVU157
	addq	%rsi, %r8
.LVL45:
	.loc 1 76 42 view .LVU158
	movw	%r10w, (%rdi,%r8,2)
	.loc 1 75 33 is_stmt 1 view .LVU159
	.loc 1 75 34 is_stmt 0 view .LVU160
	leal	4(%rax), %r8d
.LVL46:
	.loc 1 75 21 is_stmt 1 view .LVU161
	.loc 1 75 13 is_stmt 0 view .LVU162
	cmpl	%r8d, %edx
	jbe	.L42
	.loc 1 76 17 is_stmt 1 view .LVU163
	.loc 1 76 31 is_stmt 0 view .LVU164
	addq	%rsi, %r8
.LVL47:
	.loc 1 76 42 view .LVU165
	movw	%r10w, (%rdi,%r8,2)
	.loc 1 75 33 is_stmt 1 view .LVU166
	.loc 1 75 34 is_stmt 0 view .LVU167
	leal	5(%rax), %r8d
.LVL48:
	.loc 1 75 21 is_stmt 1 view .LVU168
	.loc 1 75 13 is_stmt 0 view .LVU169
	cmpl	%r8d, %edx
	jbe	.L42
	.loc 1 76 17 is_stmt 1 view .LVU170
	.loc 1 76 31 is_stmt 0 view .LVU171
	addq	%rsi, %r8
.LVL49:
	.loc 1 75 34 view .LVU172
	addl	$6, %eax
.LVL50:
	.loc 1 76 42 view .LVU173
	movw	%r10w, (%rdi,%r8,2)
	.loc 1 75 33 is_stmt 1 view .LVU174
	.loc 1 75 21 view .LVU175
	.loc 1 75 13 is_stmt 0 view .LVU176
	cmpl	%eax, %edx
	jbe	.L42
	.loc 1 76 17 is_stmt 1 view .LVU177
	.loc 1 76 31 is_stmt 0 view .LVU178
	addq	%rsi, %rax
	.loc 1 76 42 view .LVU179
	movw	%r10w, (%rdi,%rax,2)
	.loc 1 75 33 is_stmt 1 view .LVU180
	.loc 1 75 21 view .LVU181
.L42:
	.loc 1 78 13 view .LVU182
	.loc 1 78 26 is_stmt 0 view .LVU183
	imull	%esi, %ecx
.LVL51:
	.loc 1 78 26 view .LVU184
.LBE11:
.LBE14:
	.loc 1 86 5 is_stmt 1 view .LVU185
	.loc 1 86 7 is_stmt 0 view .LVU186
	cmpl	$-1, %ecx
	je	.L37
	.loc 1 89 9 is_stmt 1 view .LVU187
	.loc 1 89 16 is_stmt 0 view .LVU188
	movq	16(%rbp), %rax
	.loc 1 91 1 view .LVU189
	addq	$8, %rsp
	.cfi_remember_state
	.cfi_def_cfa_offset 24
	popq	%rbx
	.cfi_def_cfa_offset 16
.LVL52:
	.loc 1 91 1 view .LVU190
	popq	%rbp
	.cfi_def_cfa_offset 8
	.loc 1 89 16 view .LVU191
	addq	%rcx, %rax
.LVL53:
	.loc 1 91 1 view .LVU192
	ret
.LVL54:
	.p2align 4,,10
	.p2align 3
.L46:
	.cfi_restore_state
.LBB15:
.LBB12:
	.loc 1 75 18 view .LVU193
	xorl	%eax, %eax
	jmp	.L39
.LBE12:
.LBE15:
	.cfi_endproc
.LFE2:
	.size	mem_malloc, .-mem_malloc
	.p2align 4
	.globl	mem_free_c
	.type	mem_free_c, @function
mem_free_c:
.LVL55:
.LFB3:
	.loc 1 93 26 is_stmt 1 view -0
	.cfi_startproc
	.loc 1 93 26 is_stmt 0 view .LVU195
	endbr64
	.loc 1 94 5 is_stmt 1 view .LVU196
	.loc 1 95 5 view .LVU197
	.loc 1 93 26 is_stmt 0 view .LVU198
	subq	$8, %rsp
	.cfi_def_cfa_offset 16
	.loc 1 95 15 view .LVU199
	movq	mem_dev@GOTPCREL(%rip), %rcx
	.loc 1 95 7 view .LVU200
	cmpb	$0, 44(%rcx)
	je	.L64
	.loc 1 99 5 is_stmt 1 view .LVU201
	.loc 1 107 16 is_stmt 0 view .LVU202
	movl	$2, %r8d
	.loc 1 99 7 view .LVU203
	cmpl	%edi, 32(%rcx)
	jbe	.L57
	.loc 1 100 9 is_stmt 1 view .LVU204
.LVL56:
	.loc 1 101 9 view .LVU205
	.loc 1 100 26 is_stmt 0 view .LVU206
	movl	%edi, %eax
	xorl	%edx, %edx
	divl	40(%rcx)
	.loc 1 101 40 view .LVU207
	movq	24(%rcx), %rdx
	cltq
	leaq	(%rdx,%rax,2), %rdi
.LVL57:
	.loc 1 101 40 view .LVU208
	movzwl	(%rdi), %eax
.LVL58:
	.loc 1 102 9 is_stmt 1 view .LVU209
	.loc 1 102 17 view .LVU210
	.loc 1 102 9 is_stmt 0 view .LVU211
	testw	%ax, %ax
	je	.L61
	.loc 1 103 40 view .LVU212
	subl	$1, %eax
.LVL59:
	.loc 1 103 40 view .LVU213
	xorl	%esi, %esi
	leaq	2(%rax,%rax), %rdx
	call	memset@PLT
.LVL60:
.L61:
	.loc 1 105 16 view .LVU214
	xorl	%r8d, %r8d
.L57:
	.loc 1 109 1 view .LVU215
	movl	%r8d, %eax
	addq	$8, %rsp
	.cfi_remember_state
	.cfi_def_cfa_offset 8
	ret
.LVL61:
	.p2align 4,,10
	.p2align 3
.L64:
	.cfi_restore_state
.LBB18:
.LBI18:
	.loc 1 93 4 is_stmt 1 view .LVU216
.LBB19:
	.loc 1 96 9 view .LVU217
	call	*(%rcx)
.LVL62:
	.loc 1 97 9 view .LVU218
	.loc 1 96 9 is_stmt 0 view .LVU219
	movl	$1, %r8d
.LBE19:
.LBE18:
	.loc 1 109 1 view .LVU220
	addq	$8, %rsp
	.cfi_def_cfa_offset 8
	movl	%r8d, %eax
	ret
	.cfi_endproc
.LFE3:
	.size	mem_free_c, .-mem_free_c
	.p2align 4
	.globl	mem_free
	.type	mem_free, @function
mem_free:
.LVL63:
.LFB4:
	.loc 1 111 25 is_stmt 1 view -0
	.cfi_startproc
	.loc 1 111 25 is_stmt 0 view .LVU222
	endbr64
	.loc 1 112 5 is_stmt 1 view .LVU223
	.loc 1 113 5 view .LVU224
	.loc 1 113 7 is_stmt 0 view .LVU225
	testq	%rdi, %rdi
	je	.L65
	.loc 1 113 39 discriminator 2 view .LVU226
	movq	mem_dev@GOTPCREL(%rip), %rax
	movq	16(%rax), %rdx
	.loc 1 113 17 discriminator 2 view .LVU227
	cmpq	%rdi, %rdx
	ja	.L65
	.loc 1 114 5 is_stmt 1 view .LVU228
	.loc 1 114 23 is_stmt 0 view .LVU229
	subq	%rdx, %rdi
.LVL64:
	.loc 1 115 5 is_stmt 1 view .LVU230
	.loc 1 115 7 is_stmt 0 view .LVU231
	cmpl	%edi, 32(%rax)
	ja	.L70
.LVL65:
.L65:
	.loc 1 118 1 view .LVU232
	ret
.LVL66:
	.p2align 4,,10
	.p2align 3
.L70:
	.loc 1 116 9 is_stmt 1 view .LVU233
	jmp	mem_free_c@PLT
.LVL67:
	.loc 1 116 9 is_stmt 0 view .LVU234
	.cfi_endproc
.LFE4:
	.size	mem_free, .-mem_free
	.p2align 4
	.globl	rest_malloc
	.type	rest_malloc, @function
rest_malloc:
.LFB6:
	.loc 1 137 23 is_stmt 1 view -0
	.cfi_startproc
	endbr64
	.loc 1 138 5 view .LVU236
	.loc 1 138 12 is_stmt 0 view .LVU237
	movq	mem_dev@GOTPCREL(%rip), %rax
	.loc 1 138 5 view .LVU238
	jmp	*(%rax)
.LVL68:
	.cfi_endproc
.LFE6:
	.size	rest_malloc, .-rest_malloc
	.globl	mem_dev
	.section	.data.rel,"aw"
	.align 32
	.type	mem_dev, @object
	.size	mem_dev, 48
mem_dev:
	.quad	mem_init
	.quad	mem_peruser
	.quad	mem_buf
	.quad	mem_management_table
	.long	1048576
	.long	32768
	.long	32
	.byte	0
	.zero	3
	.local	mem_management_table
	.comm	mem_management_table,65536,32
	.local	mem_buf
	.comm	mem_buf,1048576,32
	.section	.rodata.cst16,"aM",@progbits,16
	.align 16
.LC0:
	.value	1
	.value	1
	.value	1
	.value	1
	.value	1
	.value	1
	.value	1
	.value	1
	.text
.Letext0:
	.section	.text.unlikely
.Letext_cold0:
	.file 2 "<built-in>"
	.section	.note.GNU-stack,"",@progbits
	.section	.note.gnu.property,"a"
	.align 8
	.long	 1f - 0f
	.long	 4f - 1f
	.long	 5
0:
	.string	 "GNU"
1:
	.align 8
	.long	 0xc0000002
	.long	 3f - 2f
2:
	.long	 0x3
3:
	.align 8
4:
