
obj/mem_management.o:     file format elf64-x86-64


Disassembly of section .text:

0000000000000000 <mem_init>:
   0:	f3 0f 1e fa          	endbr64 
   4:	53                   	push   %rbx
   5:	48 8b 1d 00 00 00 00 	mov    0x0(%rip),%rbx        # c <mem_init+0xc>
   c:	31 c0                	xor    %eax,%eax
   e:	66 90                	xchg   %ax,%ax
  10:	48 8b 53 10          	mov    0x10(%rbx),%rdx
  14:	c6 04 02 00          	movb   $0x0,(%rdx,%rax,1)
  18:	48 83 c0 01          	add    $0x1,%rax
  1c:	48 3d 00 00 10 00    	cmp    $0x100000,%rax
  22:	75 ec                	jne    10 <mem_init+0x10>
  24:	48 8b 7b 18          	mov    0x18(%rbx),%rdi
  28:	ba 00 00 01 00       	mov    $0x10000,%edx
  2d:	31 f6                	xor    %esi,%esi
  2f:	e8 00 00 00 00       	callq  34 <mem_init+0x34>
  34:	c6 43 2c 01          	movb   $0x1,0x2c(%rbx)
  38:	5b                   	pop    %rbx
  39:	c3                   	retq   
  3a:	66 0f 1f 44 00 00    	nopw   0x0(%rax,%rax,1)

0000000000000040 <mem_peruser>:
  40:	f3 0f 1e fa          	endbr64 
  44:	48 8b 15 00 00 00 00 	mov    0x0(%rip),%rdx        # 4b <mem_peruser+0xb>
  4b:	0f b6 42 2c          	movzbl 0x2c(%rdx),%eax
  4f:	84 c0                	test   %al,%al
  51:	0f 84 09 01 00 00    	je     160 <mem_peruser+0x120>
  57:	8b 4a 24             	mov    0x24(%rdx),%ecx
  5a:	85 c9                	test   %ecx,%ecx
  5c:	0f 84 1f 01 00 00    	je     181 <mem_peruser+0x141>
  62:	8d 41 ff             	lea    -0x1(%rcx),%eax
  65:	48 8b 72 18          	mov    0x18(%rdx),%rsi
  69:	83 f8 06             	cmp    $0x6,%eax
  6c:	0f 86 06 01 00 00    	jbe    178 <mem_peruser+0x138>
  72:	89 ca                	mov    %ecx,%edx
  74:	66 0f ef c9          	pxor   %xmm1,%xmm1
  78:	66 0f ef d2          	pxor   %xmm2,%xmm2
  7c:	48 89 f0             	mov    %rsi,%rax
  7f:	c1 ea 03             	shr    $0x3,%edx
  82:	66 0f 6f 25 00 00 00 	movdqa 0x0(%rip),%xmm4        # 8a <mem_peruser+0x4a>
  89:	00 
  8a:	83 ea 01             	sub    $0x1,%edx
  8d:	48 c1 e2 04          	shl    $0x4,%rdx
  91:	48 8d 54 16 10       	lea    0x10(%rsi,%rdx,1),%rdx
  96:	66 2e 0f 1f 84 00 00 	nopw   %cs:0x0(%rax,%rax,1)
  9d:	00 00 00 
  a0:	f3 0f 6f 00          	movdqu (%rax),%xmm0
  a4:	48 83 c0 10          	add    $0x10,%rax
  a8:	66 0f 75 c2          	pcmpeqw %xmm2,%xmm0
  ac:	66 0f df c4          	pandn  %xmm4,%xmm0
  b0:	66 0f 6f d8          	movdqa %xmm0,%xmm3
  b4:	66 0f 69 c2          	punpckhwd %xmm2,%xmm0
  b8:	66 0f 61 da          	punpcklwd %xmm2,%xmm3
  bc:	66 0f fe c3          	paddd  %xmm3,%xmm0
  c0:	66 0f fe c8          	paddd  %xmm0,%xmm1
  c4:	48 39 d0             	cmp    %rdx,%rax
  c7:	75 d7                	jne    a0 <mem_peruser+0x60>
  c9:	66 0f 6f c1          	movdqa %xmm1,%xmm0
  cd:	89 ca                	mov    %ecx,%edx
  cf:	66 0f 73 d8 08       	psrldq $0x8,%xmm0
  d4:	83 e2 f8             	and    $0xfffffff8,%edx
  d7:	66 0f fe c8          	paddd  %xmm0,%xmm1
  db:	66 0f 6f c1          	movdqa %xmm1,%xmm0
  df:	66 0f 73 d8 04       	psrldq $0x4,%xmm0
  e4:	66 0f fe c8          	paddd  %xmm0,%xmm1
  e8:	66 0f 7e c8          	movd   %xmm1,%eax
  ec:	f6 c1 07             	test   $0x7,%cl
  ef:	74 64                	je     155 <mem_peruser+0x115>
  f1:	89 d7                	mov    %edx,%edi
  f3:	66 83 3c 7e 01       	cmpw   $0x1,(%rsi,%rdi,2)
  f8:	8d 7a 01             	lea    0x1(%rdx),%edi
  fb:	83 d8 ff             	sbb    $0xffffffff,%eax
  fe:	39 cf                	cmp    %ecx,%edi
 100:	73 53                	jae    155 <mem_peruser+0x115>
 102:	66 83 3c 7e 01       	cmpw   $0x1,(%rsi,%rdi,2)
 107:	8d 7a 02             	lea    0x2(%rdx),%edi
 10a:	83 d8 ff             	sbb    $0xffffffff,%eax
 10d:	39 f9                	cmp    %edi,%ecx
 10f:	76 44                	jbe    155 <mem_peruser+0x115>
 111:	66 83 3c 7e 01       	cmpw   $0x1,(%rsi,%rdi,2)
 116:	8d 7a 03             	lea    0x3(%rdx),%edi
 119:	83 d8 ff             	sbb    $0xffffffff,%eax
 11c:	39 f9                	cmp    %edi,%ecx
 11e:	76 35                	jbe    155 <mem_peruser+0x115>
 120:	66 83 3c 7e 01       	cmpw   $0x1,(%rsi,%rdi,2)
 125:	8d 7a 04             	lea    0x4(%rdx),%edi
 128:	83 d8 ff             	sbb    $0xffffffff,%eax
 12b:	39 f9                	cmp    %edi,%ecx
 12d:	76 26                	jbe    155 <mem_peruser+0x115>
 12f:	66 83 3c 7e 01       	cmpw   $0x1,(%rsi,%rdi,2)
 134:	8d 7a 05             	lea    0x5(%rdx),%edi
 137:	83 d8 ff             	sbb    $0xffffffff,%eax
 13a:	39 f9                	cmp    %edi,%ecx
 13c:	76 17                	jbe    155 <mem_peruser+0x115>
 13e:	66 83 3c 7e 01       	cmpw   $0x1,(%rsi,%rdi,2)
 143:	83 d8 ff             	sbb    $0xffffffff,%eax
 146:	83 c2 06             	add    $0x6,%edx
 149:	39 d1                	cmp    %edx,%ecx
 14b:	76 08                	jbe    155 <mem_peruser+0x115>
 14d:	66 83 3c 56 01       	cmpw   $0x1,(%rsi,%rdx,2)
 152:	83 d8 ff             	sbb    $0xffffffff,%eax
 155:	6b c0 64             	imul   $0x64,%eax,%eax
 158:	31 d2                	xor    %edx,%edx
 15a:	f7 f1                	div    %ecx
 15c:	c3                   	retq   
 15d:	0f 1f 00             	nopl   (%rax)
 160:	48 83 ec 18          	sub    $0x18,%rsp
 164:	88 44 24 0f          	mov    %al,0xf(%rsp)
 168:	ff 12                	callq  *(%rdx)
 16a:	0f b6 44 24 0f       	movzbl 0xf(%rsp),%eax
 16f:	48 83 c4 18          	add    $0x18,%rsp
 173:	c3                   	retq   
 174:	0f 1f 40 00          	nopl   0x0(%rax)
 178:	31 d2                	xor    %edx,%edx
 17a:	31 c0                	xor    %eax,%eax
 17c:	e9 70 ff ff ff       	jmpq   f1 <mem_peruser+0xb1>
 181:	e9 00 00 00 00       	jmpq   186 <mem_peruser+0x146>
 186:	66 2e 0f 1f 84 00 00 	nopw   %cs:0x0(%rax,%rax,1)
 18d:	00 00 00 

0000000000000190 <mem_malloc>:
 190:	f3 0f 1e fa          	endbr64 
 194:	55                   	push   %rbp
 195:	53                   	push   %rbx
 196:	89 fb                	mov    %edi,%ebx
 198:	48 83 ec 08          	sub    $0x8,%rsp
 19c:	48 8b 2d 00 00 00 00 	mov    0x0(%rip),%rbp        # 1a3 <mem_malloc+0x13>
 1a3:	80 7d 2c 00          	cmpb   $0x0,0x2c(%rbp)
 1a7:	75 03                	jne    1ac <mem_malloc+0x1c>
 1a9:	ff 55 00             	callq  *0x0(%rbp)
 1ac:	85 db                	test   %ebx,%ebx
 1ae:	74 3a                	je     1ea <mem_malloc+0x5a>
 1b0:	8b 4d 28             	mov    0x28(%rbp),%ecx
 1b3:	31 d2                	xor    %edx,%edx
 1b5:	89 d8                	mov    %ebx,%eax
 1b7:	48 8b 7d 18          	mov    0x18(%rbp),%rdi
 1bb:	f7 f1                	div    %ecx
 1bd:	83 fa 01             	cmp    $0x1,%edx
 1c0:	8b 55 24             	mov    0x24(%rbp),%edx
 1c3:	83 d8 ff             	sbb    $0xffffffff,%eax
 1c6:	8d 72 ff             	lea    -0x1(%rdx),%esi
 1c9:	31 d2                	xor    %edx,%edx
 1cb:	0f 1f 44 00 00       	nopl   0x0(%rax,%rax,1)
 1d0:	83 c2 01             	add    $0x1,%edx
 1d3:	66 83 3c 77 00       	cmpw   $0x0,(%rdi,%rsi,2)
 1d8:	74 02                	je     1dc <mem_malloc+0x4c>
 1da:	31 d2                	xor    %edx,%edx
 1dc:	39 d0                	cmp    %edx,%eax
 1de:	74 18                	je     1f8 <mem_malloc+0x68>
 1e0:	48 83 ee 01          	sub    $0x1,%rsi
 1e4:	48 83 fe ff          	cmp    $0xffffffffffffffff,%rsi
 1e8:	75 e6                	jne    1d0 <mem_malloc+0x40>
 1ea:	48 83 c4 08          	add    $0x8,%rsp
 1ee:	31 c0                	xor    %eax,%eax
 1f0:	5b                   	pop    %rbx
 1f1:	5d                   	pop    %rbp
 1f2:	c3                   	retq   
 1f3:	0f 1f 44 00 00       	nopl   0x0(%rax,%rax,1)
 1f8:	85 d2                	test   %edx,%edx
 1fa:	0f 84 c0 00 00 00    	je     2c0 <mem_malloc+0x130>
 200:	8d 42 ff             	lea    -0x1(%rdx),%eax
 203:	41 89 d2             	mov    %edx,%r10d
 206:	83 f8 06             	cmp    $0x6,%eax
 209:	0f 86 d1 00 00 00    	jbe    2e0 <mem_malloc+0x150>
 20f:	41 89 d0             	mov    %edx,%r8d
 212:	66 0f 6e c2          	movd   %edx,%xmm0
 216:	48 8d 04 77          	lea    (%rdi,%rsi,2),%rax
 21a:	41 c1 e8 03          	shr    $0x3,%r8d
 21e:	66 0f 61 c0          	punpcklwd %xmm0,%xmm0
 222:	41 83 e8 01          	sub    $0x1,%r8d
 226:	66 0f 70 c0 00       	pshufd $0x0,%xmm0,%xmm0
 22b:	49 c1 e0 04          	shl    $0x4,%r8
 22f:	49 01 c0             	add    %rax,%r8
 232:	66 0f 1f 44 00 00    	nopw   0x0(%rax,%rax,1)
 238:	49 89 c1             	mov    %rax,%r9
 23b:	0f 11 00             	movups %xmm0,(%rax)
 23e:	48 83 c0 10          	add    $0x10,%rax
 242:	4d 39 c1             	cmp    %r8,%r9
 245:	75 f1                	jne    238 <mem_malloc+0xa8>
 247:	89 d0                	mov    %edx,%eax
 249:	83 e0 f8             	and    $0xfffffff8,%eax
 24c:	f6 c2 07             	test   $0x7,%dl
 24f:	74 6f                	je     2c0 <mem_malloc+0x130>
 251:	41 89 c0             	mov    %eax,%r8d
 254:	49 01 f0             	add    %rsi,%r8
 257:	66 46 89 14 47       	mov    %r10w,(%rdi,%r8,2)
 25c:	44 8d 40 01          	lea    0x1(%rax),%r8d
 260:	44 39 c2             	cmp    %r8d,%edx
 263:	76 5b                	jbe    2c0 <mem_malloc+0x130>
 265:	49 01 f0             	add    %rsi,%r8
 268:	66 46 89 14 47       	mov    %r10w,(%rdi,%r8,2)
 26d:	44 8d 40 02          	lea    0x2(%rax),%r8d
 271:	44 39 c2             	cmp    %r8d,%edx
 274:	76 4a                	jbe    2c0 <mem_malloc+0x130>
 276:	49 01 f0             	add    %rsi,%r8
 279:	66 46 89 14 47       	mov    %r10w,(%rdi,%r8,2)
 27e:	44 8d 40 03          	lea    0x3(%rax),%r8d
 282:	44 39 c2             	cmp    %r8d,%edx
 285:	76 39                	jbe    2c0 <mem_malloc+0x130>
 287:	49 01 f0             	add    %rsi,%r8
 28a:	66 46 89 14 47       	mov    %r10w,(%rdi,%r8,2)
 28f:	44 8d 40 04          	lea    0x4(%rax),%r8d
 293:	44 39 c2             	cmp    %r8d,%edx
 296:	76 28                	jbe    2c0 <mem_malloc+0x130>
 298:	49 01 f0             	add    %rsi,%r8
 29b:	66 46 89 14 47       	mov    %r10w,(%rdi,%r8,2)
 2a0:	44 8d 40 05          	lea    0x5(%rax),%r8d
 2a4:	44 39 c2             	cmp    %r8d,%edx
 2a7:	76 17                	jbe    2c0 <mem_malloc+0x130>
 2a9:	49 01 f0             	add    %rsi,%r8
 2ac:	83 c0 06             	add    $0x6,%eax
 2af:	66 46 89 14 47       	mov    %r10w,(%rdi,%r8,2)
 2b4:	39 c2                	cmp    %eax,%edx
 2b6:	76 08                	jbe    2c0 <mem_malloc+0x130>
 2b8:	48 01 f0             	add    %rsi,%rax
 2bb:	66 44 89 14 47       	mov    %r10w,(%rdi,%rax,2)
 2c0:	0f af ce             	imul   %esi,%ecx
 2c3:	83 f9 ff             	cmp    $0xffffffff,%ecx
 2c6:	0f 84 1e ff ff ff    	je     1ea <mem_malloc+0x5a>
 2cc:	48 8b 45 10          	mov    0x10(%rbp),%rax
 2d0:	48 83 c4 08          	add    $0x8,%rsp
 2d4:	5b                   	pop    %rbx
 2d5:	5d                   	pop    %rbp
 2d6:	48 01 c8             	add    %rcx,%rax
 2d9:	c3                   	retq   
 2da:	66 0f 1f 44 00 00    	nopw   0x0(%rax,%rax,1)
 2e0:	31 c0                	xor    %eax,%eax
 2e2:	e9 6a ff ff ff       	jmpq   251 <mem_malloc+0xc1>
 2e7:	66 0f 1f 84 00 00 00 	nopw   0x0(%rax,%rax,1)
 2ee:	00 00 

00000000000002f0 <mem_free_c>:
 2f0:	f3 0f 1e fa          	endbr64 
 2f4:	48 83 ec 08          	sub    $0x8,%rsp
 2f8:	48 8b 0d 00 00 00 00 	mov    0x0(%rip),%rcx        # 2ff <mem_free_c+0xf>
 2ff:	80 79 2c 00          	cmpb   $0x0,0x2c(%rcx)
 303:	74 43                	je     348 <mem_free_c+0x58>
 305:	41 b8 02 00 00 00    	mov    $0x2,%r8d
 30b:	39 79 20             	cmp    %edi,0x20(%rcx)
 30e:	76 2b                	jbe    33b <mem_free_c+0x4b>
 310:	89 f8                	mov    %edi,%eax
 312:	31 d2                	xor    %edx,%edx
 314:	f7 71 28             	divl   0x28(%rcx)
 317:	48 8b 51 18          	mov    0x18(%rcx),%rdx
 31b:	48 98                	cltq   
 31d:	48 8d 3c 42          	lea    (%rdx,%rax,2),%rdi
 321:	0f b7 07             	movzwl (%rdi),%eax
 324:	66 85 c0             	test   %ax,%ax
 327:	74 0f                	je     338 <mem_free_c+0x48>
 329:	83 e8 01             	sub    $0x1,%eax
 32c:	31 f6                	xor    %esi,%esi
 32e:	48 8d 54 00 02       	lea    0x2(%rax,%rax,1),%rdx
 333:	e8 00 00 00 00       	callq  338 <mem_free_c+0x48>
 338:	45 31 c0             	xor    %r8d,%r8d
 33b:	44 89 c0             	mov    %r8d,%eax
 33e:	48 83 c4 08          	add    $0x8,%rsp
 342:	c3                   	retq   
 343:	0f 1f 44 00 00       	nopl   0x0(%rax,%rax,1)
 348:	ff 11                	callq  *(%rcx)
 34a:	41 b8 01 00 00 00    	mov    $0x1,%r8d
 350:	48 83 c4 08          	add    $0x8,%rsp
 354:	44 89 c0             	mov    %r8d,%eax
 357:	c3                   	retq   
 358:	0f 1f 84 00 00 00 00 	nopl   0x0(%rax,%rax,1)
 35f:	00 

0000000000000360 <mem_free>:
 360:	f3 0f 1e fa          	endbr64 
 364:	48 85 ff             	test   %rdi,%rdi
 367:	74 18                	je     381 <mem_free+0x21>
 369:	48 8b 05 00 00 00 00 	mov    0x0(%rip),%rax        # 370 <mem_free+0x10>
 370:	48 8b 50 10          	mov    0x10(%rax),%rdx
 374:	48 39 fa             	cmp    %rdi,%rdx
 377:	77 08                	ja     381 <mem_free+0x21>
 379:	48 29 d7             	sub    %rdx,%rdi
 37c:	39 78 20             	cmp    %edi,0x20(%rax)
 37f:	77 07                	ja     388 <mem_free+0x28>
 381:	c3                   	retq   
 382:	66 0f 1f 44 00 00    	nopw   0x0(%rax,%rax,1)
 388:	e9 00 00 00 00       	jmpq   38d <mem_free+0x2d>
 38d:	0f 1f 00             	nopl   (%rax)

0000000000000390 <rest_malloc>:
 390:	f3 0f 1e fa          	endbr64 
 394:	48 8b 05 00 00 00 00 	mov    0x0(%rip),%rax        # 39b <rest_malloc+0xb>
 39b:	ff 20                	jmpq   *(%rax)

Disassembly of section .text.unlikely:

0000000000000000 <mem_peruser.cold>:
   0:	0f 0b                	ud2    
